
lab3_test4_1/user.elf:     file format elf32-littlearm


Disassembly of section .text:

00300000 <__start>:
  300000:	e59f0024 	ldr	r0, [pc, #36]	; 30002c <bss_loop+0x14>
  300004:	e59f1024 	ldr	r1, [pc, #36]	; 300030 <bss_loop+0x18>
  300008:	e3a02000 	mov	r2, #0
  30000c:	e3a03000 	mov	r3, #0
  300010:	e3a04000 	mov	r4, #0
  300014:	e3a05000 	mov	r5, #0

00300018 <bss_loop>:
  300018:	e8a0003c 	stmia	r0!, {r2, r3, r4, r5}
  30001c:	e1500001 	cmp	r0, r1
  300020:	3afffffc 	bcc	300018 <bss_loop>
  300024:	eb000073 	bl	3001f8 <main>
  300028:	ef000007 	svc	0x00000007
  30002c:	0030c000 	eorseq	ip, r0, r0
  300030:	0031c000 	eorseq	ip, r1, r0

00300034 <idle_thread>:
  300034:	eafffffe 	b	300034 <idle_thread>

00300038 <print_status>:
  300038:	e92d4038 	push	{r3, r4, r5, lr}
  30003c:	e1a05000 	mov	r5, r0
  300040:	e1a04001 	mov	r4, r1
  300044:	eb0001b3 	bl	300718 <get_time>
  300048:	e1a01000 	mov	r1, r0
  30004c:	e30a01a8 	movw	r0, #41384	; 0xa1a8
  300050:	e3400030 	movt	r0, #48	; 0x30
  300054:	e1a02005 	mov	r2, r5
  300058:	e1a03004 	mov	r3, r4
  30005c:	eb0001c2 	bl	30076c <printf>
  300060:	e8bd8038 	pop	{r3, r4, r5, pc}

00300064 <thread_count>:
  300064:	e92d4008 	push	{r3, lr}
  300068:	e1a04000 	mov	r4, r0
  30006c:	e30c5000 	movw	r5, #49152	; 0xc000
  300070:	e3405030 	movt	r5, #48	; 0x30
  300074:	e3a0602c 	mov	r6, #44	; 0x2c
  300078:	e7951104 	ldr	r1, [r5, r4, lsl #2]
  30007c:	e2813001 	add	r3, r1, #1
  300080:	e7853104 	str	r3, [r5, r4, lsl #2]
  300084:	e1a00004 	mov	r0, r4
  300088:	ebffffea 	bl	300038 <print_status>
  30008c:	e1a00006 	mov	r0, r6
  300090:	eb0001a6 	bl	300730 <spin_wait>
  300094:	eb00019d 	bl	300710 <wait_until_next_period>
  300098:	eafffff6 	b	300078 <thread_count+0x14>

0030009c <thread_1>:
  30009c:	e92d4008 	push	{r3, lr}
  3000a0:	e3a00001 	mov	r0, #1
  3000a4:	ebffffee 	bl	300064 <thread_count>

003000a8 <thread_2>:
  3000a8:	e92d4008 	push	{r3, lr}
  3000ac:	e3a00002 	mov	r0, #2
  3000b0:	ebffffeb 	bl	300064 <thread_count>

003000b4 <thread_3>:
  3000b4:	e92d4008 	push	{r3, lr}
  3000b8:	e3a00003 	mov	r0, #3
  3000bc:	ebffffe8 	bl	300064 <thread_count>

003000c0 <thread_4>:
  3000c0:	e92d4008 	push	{r3, lr}
  3000c4:	e3a00004 	mov	r0, #4
  3000c8:	ebffffe5 	bl	300064 <thread_count>

003000cc <thread_5>:
  3000cc:	e92d4008 	push	{r3, lr}
  3000d0:	e3a00005 	mov	r0, #5
  3000d4:	ebffffe2 	bl	300064 <thread_count>

003000d8 <thread_6>:
  3000d8:	e92d4008 	push	{r3, lr}
  3000dc:	e3a00006 	mov	r0, #6
  3000e0:	ebffffdf 	bl	300064 <thread_count>

003000e4 <thread_7>:
  3000e4:	e92d4008 	push	{r3, lr}
  3000e8:	e3a00007 	mov	r0, #7
  3000ec:	ebffffdc 	bl	300064 <thread_count>

003000f0 <thread_8>:
  3000f0:	e92d4008 	push	{r3, lr}
  3000f4:	e3a00008 	mov	r0, #8
  3000f8:	ebffffd9 	bl	300064 <thread_count>

003000fc <thread_9>:
  3000fc:	e92d4008 	push	{r3, lr}
  300100:	e3a00009 	mov	r0, #9
  300104:	ebffffd6 	bl	300064 <thread_count>

00300108 <thread_10>:
  300108:	e92d4008 	push	{r3, lr}
  30010c:	e3a0000a 	mov	r0, #10
  300110:	ebffffd3 	bl	300064 <thread_count>

00300114 <thread_11>:
  300114:	e92d4008 	push	{r3, lr}
  300118:	e3a0000b 	mov	r0, #11
  30011c:	ebffffd0 	bl	300064 <thread_count>

00300120 <thread_12>:
  300120:	e92d4008 	push	{r3, lr}
  300124:	e3a0000c 	mov	r0, #12
  300128:	ebffffcd 	bl	300064 <thread_count>

0030012c <thread_13>:
  30012c:	e92d4008 	push	{r3, lr}
  300130:	e3a0000d 	mov	r0, #13
  300134:	ebffffca 	bl	300064 <thread_count>

00300138 <thread_14>:
  300138:	e92d4008 	push	{r3, lr}
  30013c:	e3a0000e 	mov	r0, #14
  300140:	ebffffc7 	bl	300064 <thread_count>

00300144 <thread_15>:
  300144:	e92d4008 	push	{r3, lr}
  300148:	e3a0000f 	mov	r0, #15
  30014c:	ebffffc4 	bl	300064 <thread_count>

00300150 <thread_16>:
  300150:	e92d4008 	push	{r3, lr}
  300154:	e3a00010 	mov	r0, #16
  300158:	ebffffc1 	bl	300064 <thread_count>

0030015c <thread_17>:
  30015c:	e92d4008 	push	{r3, lr}
  300160:	e3a00011 	mov	r0, #17
  300164:	ebffffbe 	bl	300064 <thread_count>

00300168 <thread_18>:
  300168:	e92d4008 	push	{r3, lr}
  30016c:	e3a00012 	mov	r0, #18
  300170:	ebffffbb 	bl	300064 <thread_count>

00300174 <thread_19>:
  300174:	e92d4008 	push	{r3, lr}
  300178:	e3a00013 	mov	r0, #19
  30017c:	ebffffb8 	bl	300064 <thread_count>

00300180 <thread_20>:
  300180:	e92d4008 	push	{r3, lr}
  300184:	e3a00014 	mov	r0, #20
  300188:	ebffffb5 	bl	300064 <thread_count>

0030018c <thread_21>:
  30018c:	e92d4008 	push	{r3, lr}
  300190:	e3a00015 	mov	r0, #21
  300194:	ebffffb2 	bl	300064 <thread_count>

00300198 <thread_22>:
  300198:	e92d4008 	push	{r3, lr}
  30019c:	e3a00016 	mov	r0, #22
  3001a0:	ebffffaf 	bl	300064 <thread_count>

003001a4 <thread_23>:
  3001a4:	e92d4008 	push	{r3, lr}
  3001a8:	e3a00017 	mov	r0, #23
  3001ac:	ebffffac 	bl	300064 <thread_count>

003001b0 <thread_24>:
  3001b0:	e92d4008 	push	{r3, lr}
  3001b4:	e3a00018 	mov	r0, #24
  3001b8:	ebffffa9 	bl	300064 <thread_count>

003001bc <thread_25>:
  3001bc:	e92d4008 	push	{r3, lr}
  3001c0:	e3a00019 	mov	r0, #25
  3001c4:	ebffffa6 	bl	300064 <thread_count>

003001c8 <thread_26>:
  3001c8:	e92d4008 	push	{r3, lr}
  3001cc:	e3a0001a 	mov	r0, #26
  3001d0:	ebffffa3 	bl	300064 <thread_count>

003001d4 <thread_27>:
  3001d4:	e92d4008 	push	{r3, lr}
  3001d8:	e3a0001b 	mov	r0, #27
  3001dc:	ebffffa0 	bl	300064 <thread_count>

003001e0 <thread_28>:
  3001e0:	e92d4008 	push	{r3, lr}
  3001e4:	e3a0001c 	mov	r0, #28
  3001e8:	ebffff9d 	bl	300064 <thread_count>

003001ec <thread_29>:
  3001ec:	e92d4008 	push	{r3, lr}
  3001f0:	e3a0001d 	mov	r0, #29
  3001f4:	ebffff9a 	bl	300064 <thread_count>

003001f8 <main>:
  3001f8:	e92d4030 	push	{r4, r5, lr}
  3001fc:	e24dd00c 	sub	sp, sp, #12
  300200:	e3000034 	movw	r0, #52	; 0x34
  300204:	e3400030 	movt	r0, #48	; 0x30
  300208:	e59f1410 	ldr	r1, [pc, #1040]	; 300620 <main+0x428>
  30020c:	eb000135 	bl	3006e8 <thread_init>
  300210:	e2501000 	subs	r1, r0, #0
  300214:	0a000004 	beq	30022c <main+0x34>
  300218:	e30a01c8 	movw	r0, #41416	; 0xa1c8
  30021c:	e3400030 	movt	r0, #48	; 0x30
  300220:	eb000151 	bl	30076c <printf>
  300224:	e3a00001 	mov	r0, #1
  300228:	ea0000fa 	b	300618 <main+0x420>
  30022c:	e3005bb8 	movw	r5, #3000	; 0xbb8
  300230:	e58d5000 	str	r5, [sp]
  300234:	e300009c 	movw	r0, #156	; 0x9c
  300238:	e3400030 	movt	r0, #48	; 0x30
  30023c:	e59f13e0 	ldr	r1, [pc, #992]	; 300624 <main+0x42c>
  300240:	e3a02001 	mov	r2, #1
  300244:	e3a03032 	mov	r3, #50	; 0x32
  300248:	eb000128 	bl	3006f0 <thread_create>
  30024c:	e1a04000 	mov	r4, r0
  300250:	e58d5000 	str	r5, [sp]
  300254:	e30000a8 	movw	r0, #168	; 0xa8
  300258:	e3400030 	movt	r0, #48	; 0x30
  30025c:	e59f13c4 	ldr	r1, [pc, #964]	; 300628 <main+0x430>
  300260:	e3a02002 	mov	r2, #2
  300264:	e3a03032 	mov	r3, #50	; 0x32
  300268:	eb000120 	bl	3006f0 <thread_create>
  30026c:	e0844000 	add	r4, r4, r0
  300270:	e58d5000 	str	r5, [sp]
  300274:	e30000b4 	movw	r0, #180	; 0xb4
  300278:	e3400030 	movt	r0, #48	; 0x30
  30027c:	e59f13a8 	ldr	r1, [pc, #936]	; 30062c <main+0x434>
  300280:	e3a02003 	mov	r2, #3
  300284:	e3a03032 	mov	r3, #50	; 0x32
  300288:	eb000118 	bl	3006f0 <thread_create>
  30028c:	e0804004 	add	r4, r0, r4
  300290:	e58d5000 	str	r5, [sp]
  300294:	e30000c0 	movw	r0, #192	; 0xc0
  300298:	e3400030 	movt	r0, #48	; 0x30
  30029c:	e59f138c 	ldr	r1, [pc, #908]	; 300630 <main+0x438>
  3002a0:	e3a02004 	mov	r2, #4
  3002a4:	e3a03032 	mov	r3, #50	; 0x32
  3002a8:	eb000110 	bl	3006f0 <thread_create>
  3002ac:	e0804004 	add	r4, r0, r4
  3002b0:	e58d5000 	str	r5, [sp]
  3002b4:	e30000cc 	movw	r0, #204	; 0xcc
  3002b8:	e3400030 	movt	r0, #48	; 0x30
  3002bc:	e59f1370 	ldr	r1, [pc, #880]	; 300634 <main+0x43c>
  3002c0:	e3a02005 	mov	r2, #5
  3002c4:	e3a03032 	mov	r3, #50	; 0x32
  3002c8:	eb000108 	bl	3006f0 <thread_create>
  3002cc:	e0804004 	add	r4, r0, r4
  3002d0:	e58d5000 	str	r5, [sp]
  3002d4:	e30000d8 	movw	r0, #216	; 0xd8
  3002d8:	e3400030 	movt	r0, #48	; 0x30
  3002dc:	e59f1354 	ldr	r1, [pc, #852]	; 300638 <main+0x440>
  3002e0:	e3a02006 	mov	r2, #6
  3002e4:	e3a03032 	mov	r3, #50	; 0x32
  3002e8:	eb000100 	bl	3006f0 <thread_create>
  3002ec:	e0804004 	add	r4, r0, r4
  3002f0:	e58d5000 	str	r5, [sp]
  3002f4:	e30000e4 	movw	r0, #228	; 0xe4
  3002f8:	e3400030 	movt	r0, #48	; 0x30
  3002fc:	e59f1338 	ldr	r1, [pc, #824]	; 30063c <main+0x444>
  300300:	e3a02007 	mov	r2, #7
  300304:	e3a03032 	mov	r3, #50	; 0x32
  300308:	eb0000f8 	bl	3006f0 <thread_create>
  30030c:	e0804004 	add	r4, r0, r4
  300310:	e58d5000 	str	r5, [sp]
  300314:	e30000f0 	movw	r0, #240	; 0xf0
  300318:	e3400030 	movt	r0, #48	; 0x30
  30031c:	e59f131c 	ldr	r1, [pc, #796]	; 300640 <main+0x448>
  300320:	e3a02008 	mov	r2, #8
  300324:	e3a03032 	mov	r3, #50	; 0x32
  300328:	eb0000f0 	bl	3006f0 <thread_create>
  30032c:	e0804004 	add	r4, r0, r4
  300330:	e58d5000 	str	r5, [sp]
  300334:	e30000fc 	movw	r0, #252	; 0xfc
  300338:	e3400030 	movt	r0, #48	; 0x30
  30033c:	e59f1300 	ldr	r1, [pc, #768]	; 300644 <main+0x44c>
  300340:	e3a02009 	mov	r2, #9
  300344:	e3a03032 	mov	r3, #50	; 0x32
  300348:	eb0000e8 	bl	3006f0 <thread_create>
  30034c:	e0804004 	add	r4, r0, r4
  300350:	e58d5000 	str	r5, [sp]
  300354:	e3000108 	movw	r0, #264	; 0x108
  300358:	e3400030 	movt	r0, #48	; 0x30
  30035c:	e59f12e4 	ldr	r1, [pc, #740]	; 300648 <main+0x450>
  300360:	e3a0200a 	mov	r2, #10
  300364:	e3a03032 	mov	r3, #50	; 0x32
  300368:	eb0000e0 	bl	3006f0 <thread_create>
  30036c:	e0804004 	add	r4, r0, r4
  300370:	e58d5000 	str	r5, [sp]
  300374:	e3000114 	movw	r0, #276	; 0x114
  300378:	e3400030 	movt	r0, #48	; 0x30
  30037c:	e59f12c8 	ldr	r1, [pc, #712]	; 30064c <main+0x454>
  300380:	e3a0200b 	mov	r2, #11
  300384:	e3a03032 	mov	r3, #50	; 0x32
  300388:	eb0000d8 	bl	3006f0 <thread_create>
  30038c:	e0804004 	add	r4, r0, r4
  300390:	e58d5000 	str	r5, [sp]
  300394:	e3000120 	movw	r0, #288	; 0x120
  300398:	e3400030 	movt	r0, #48	; 0x30
  30039c:	e59f12ac 	ldr	r1, [pc, #684]	; 300650 <main+0x458>
  3003a0:	e3a0200c 	mov	r2, #12
  3003a4:	e3a03032 	mov	r3, #50	; 0x32
  3003a8:	eb0000d0 	bl	3006f0 <thread_create>
  3003ac:	e0804004 	add	r4, r0, r4
  3003b0:	e58d5000 	str	r5, [sp]
  3003b4:	e300012c 	movw	r0, #300	; 0x12c
  3003b8:	e3400030 	movt	r0, #48	; 0x30
  3003bc:	e59f1290 	ldr	r1, [pc, #656]	; 300654 <main+0x45c>
  3003c0:	e3a0200d 	mov	r2, #13
  3003c4:	e3a03032 	mov	r3, #50	; 0x32
  3003c8:	eb0000c8 	bl	3006f0 <thread_create>
  3003cc:	e0804004 	add	r4, r0, r4
  3003d0:	e58d5000 	str	r5, [sp]
  3003d4:	e3000138 	movw	r0, #312	; 0x138
  3003d8:	e3400030 	movt	r0, #48	; 0x30
  3003dc:	e59f1274 	ldr	r1, [pc, #628]	; 300658 <main+0x460>
  3003e0:	e3a0200e 	mov	r2, #14
  3003e4:	e3a03032 	mov	r3, #50	; 0x32
  3003e8:	eb0000c0 	bl	3006f0 <thread_create>
  3003ec:	e0804004 	add	r4, r0, r4
  3003f0:	e58d5000 	str	r5, [sp]
  3003f4:	e3000144 	movw	r0, #324	; 0x144
  3003f8:	e3400030 	movt	r0, #48	; 0x30
  3003fc:	e59f1258 	ldr	r1, [pc, #600]	; 30065c <main+0x464>
  300400:	e3a0200f 	mov	r2, #15
  300404:	e3a03032 	mov	r3, #50	; 0x32
  300408:	eb0000b8 	bl	3006f0 <thread_create>
  30040c:	e0804004 	add	r4, r0, r4
  300410:	e58d5000 	str	r5, [sp]
  300414:	e3000150 	movw	r0, #336	; 0x150
  300418:	e3400030 	movt	r0, #48	; 0x30
  30041c:	e59f123c 	ldr	r1, [pc, #572]	; 300660 <main+0x468>
  300420:	e3a02010 	mov	r2, #16
  300424:	e3a03032 	mov	r3, #50	; 0x32
  300428:	eb0000b0 	bl	3006f0 <thread_create>
  30042c:	e0804004 	add	r4, r0, r4
  300430:	e58d5000 	str	r5, [sp]
  300434:	e300015c 	movw	r0, #348	; 0x15c
  300438:	e3400030 	movt	r0, #48	; 0x30
  30043c:	e59f1220 	ldr	r1, [pc, #544]	; 300664 <main+0x46c>
  300440:	e3a02011 	mov	r2, #17
  300444:	e3a03032 	mov	r3, #50	; 0x32
  300448:	eb0000a8 	bl	3006f0 <thread_create>
  30044c:	e0804004 	add	r4, r0, r4
  300450:	e58d5000 	str	r5, [sp]
  300454:	e3000168 	movw	r0, #360	; 0x168
  300458:	e3400030 	movt	r0, #48	; 0x30
  30045c:	e59f1204 	ldr	r1, [pc, #516]	; 300668 <main+0x470>
  300460:	e3a02012 	mov	r2, #18
  300464:	e3a03032 	mov	r3, #50	; 0x32
  300468:	eb0000a0 	bl	3006f0 <thread_create>
  30046c:	e0804004 	add	r4, r0, r4
  300470:	e58d5000 	str	r5, [sp]
  300474:	e3000174 	movw	r0, #372	; 0x174
  300478:	e3400030 	movt	r0, #48	; 0x30
  30047c:	e59f11e8 	ldr	r1, [pc, #488]	; 30066c <main+0x474>
  300480:	e3a02013 	mov	r2, #19
  300484:	e3a03032 	mov	r3, #50	; 0x32
  300488:	eb000098 	bl	3006f0 <thread_create>
  30048c:	e0804004 	add	r4, r0, r4
  300490:	e58d5000 	str	r5, [sp]
  300494:	e3000180 	movw	r0, #384	; 0x180
  300498:	e3400030 	movt	r0, #48	; 0x30
  30049c:	e59f11cc 	ldr	r1, [pc, #460]	; 300670 <main+0x478>
  3004a0:	e3a02014 	mov	r2, #20
  3004a4:	e3a03032 	mov	r3, #50	; 0x32
  3004a8:	eb000090 	bl	3006f0 <thread_create>
  3004ac:	e0804004 	add	r4, r0, r4
  3004b0:	e58d5000 	str	r5, [sp]
  3004b4:	e300018c 	movw	r0, #396	; 0x18c
  3004b8:	e3400030 	movt	r0, #48	; 0x30
  3004bc:	e59f11b0 	ldr	r1, [pc, #432]	; 300674 <main+0x47c>
  3004c0:	e3a02015 	mov	r2, #21
  3004c4:	e3a03032 	mov	r3, #50	; 0x32
  3004c8:	eb000088 	bl	3006f0 <thread_create>
  3004cc:	e0804004 	add	r4, r0, r4
  3004d0:	e58d5000 	str	r5, [sp]
  3004d4:	e3000198 	movw	r0, #408	; 0x198
  3004d8:	e3400030 	movt	r0, #48	; 0x30
  3004dc:	e59f1194 	ldr	r1, [pc, #404]	; 300678 <main+0x480>
  3004e0:	e3a02016 	mov	r2, #22
  3004e4:	e3a03032 	mov	r3, #50	; 0x32
  3004e8:	eb000080 	bl	3006f0 <thread_create>
  3004ec:	e0804004 	add	r4, r0, r4
  3004f0:	e58d5000 	str	r5, [sp]
  3004f4:	e30001a4 	movw	r0, #420	; 0x1a4
  3004f8:	e3400030 	movt	r0, #48	; 0x30
  3004fc:	e59f1178 	ldr	r1, [pc, #376]	; 30067c <main+0x484>
  300500:	e3a02017 	mov	r2, #23
  300504:	e3a03032 	mov	r3, #50	; 0x32
  300508:	eb000078 	bl	3006f0 <thread_create>
  30050c:	e0804004 	add	r4, r0, r4
  300510:	e58d5000 	str	r5, [sp]
  300514:	e30001b0 	movw	r0, #432	; 0x1b0
  300518:	e3400030 	movt	r0, #48	; 0x30
  30051c:	e59f115c 	ldr	r1, [pc, #348]	; 300680 <main+0x488>
  300520:	e3a02018 	mov	r2, #24
  300524:	e3a03032 	mov	r3, #50	; 0x32
  300528:	eb000070 	bl	3006f0 <thread_create>
  30052c:	e0804004 	add	r4, r0, r4
  300530:	e58d5000 	str	r5, [sp]
  300534:	e30001bc 	movw	r0, #444	; 0x1bc
  300538:	e3400030 	movt	r0, #48	; 0x30
  30053c:	e59f1140 	ldr	r1, [pc, #320]	; 300684 <main+0x48c>
  300540:	e3a02019 	mov	r2, #25
  300544:	e3a03032 	mov	r3, #50	; 0x32
  300548:	eb000068 	bl	3006f0 <thread_create>
  30054c:	e0804004 	add	r4, r0, r4
  300550:	e58d5000 	str	r5, [sp]
  300554:	e30001c8 	movw	r0, #456	; 0x1c8
  300558:	e3400030 	movt	r0, #48	; 0x30
  30055c:	e59f1124 	ldr	r1, [pc, #292]	; 300688 <main+0x490>
  300560:	e3a0201a 	mov	r2, #26
  300564:	e3a03032 	mov	r3, #50	; 0x32
  300568:	eb000060 	bl	3006f0 <thread_create>
  30056c:	e0804004 	add	r4, r0, r4
  300570:	e58d5000 	str	r5, [sp]
  300574:	e30001d4 	movw	r0, #468	; 0x1d4
  300578:	e3400030 	movt	r0, #48	; 0x30
  30057c:	e59f1108 	ldr	r1, [pc, #264]	; 30068c <main+0x494>
  300580:	e3a0201b 	mov	r2, #27
  300584:	e3a03032 	mov	r3, #50	; 0x32
  300588:	eb000058 	bl	3006f0 <thread_create>
  30058c:	e0804004 	add	r4, r0, r4
  300590:	e58d5000 	str	r5, [sp]
  300594:	e30001e0 	movw	r0, #480	; 0x1e0
  300598:	e3400030 	movt	r0, #48	; 0x30
  30059c:	e59f10ec 	ldr	r1, [pc, #236]	; 300690 <main+0x498>
  3005a0:	e3a0201c 	mov	r2, #28
  3005a4:	e3a03032 	mov	r3, #50	; 0x32
  3005a8:	eb000050 	bl	3006f0 <thread_create>
  3005ac:	e0804004 	add	r4, r0, r4
  3005b0:	e58d5000 	str	r5, [sp]
  3005b4:	e30001ec 	movw	r0, #492	; 0x1ec
  3005b8:	e3400030 	movt	r0, #48	; 0x30
  3005bc:	e59f10d0 	ldr	r1, [pc, #208]	; 300694 <main+0x49c>
  3005c0:	e3a0201d 	mov	r2, #29
  3005c4:	e3a03032 	mov	r3, #50	; 0x32
  3005c8:	eb000048 	bl	3006f0 <thread_create>
  3005cc:	e1700004 	cmn	r0, r4
  3005d0:	0a000004 	beq	3005e8 <main+0x3f0>
  3005d4:	e30a01f4 	movw	r0, #41460	; 0xa1f4
  3005d8:	e3400030 	movt	r0, #48	; 0x30
  3005dc:	eb000062 	bl	30076c <printf>
  3005e0:	e3a00001 	mov	r0, #1
  3005e4:	ea00000b 	b	300618 <main+0x420>
  3005e8:	e30a021c 	movw	r0, #41500	; 0xa21c
  3005ec:	e3400030 	movt	r0, #48	; 0x30
  3005f0:	eb00005d 	bl	30076c <printf>
  3005f4:	eb000049 	bl	300720 <scheduler_start>
  3005f8:	e2501000 	subs	r1, r0, #0
  3005fc:	03a00002 	moveq	r0, #2
  300600:	0a000004 	beq	300618 <main+0x420>
  300604:	e30a0254 	movw	r0, #41556	; 0xa254
  300608:	e3400030 	movt	r0, #48	; 0x30
  30060c:	eb000056 	bl	30076c <printf>
  300610:	e3a00001 	mov	r0, #1
  300614:	eaffffff 	b	300618 <main+0x420>
  300618:	e28dd00c 	add	sp, sp, #12
  30061c:	e8bd8030 	pop	{r4, r5, pc}
  300620:	003100b4 	ldrhteq	r0, [r1], -r4
  300624:	0030e0b4 	ldrhteq	lr, [r0], -r4
  300628:	003128b4 	ldrhteq	r2, [r1], -r4
  30062c:	003140b4 	ldrhteq	r4, [r1], -r4
  300630:	0030e8b4 	ldrhteq	lr, [r0], -r4
  300634:	003110b4 	ldrhteq	r1, [r1], -r4
  300638:	003130b4 	ldrhteq	r3, [r1], -r4
  30063c:	003188b4 	ldrhteq	r8, [r1], -r4
  300640:	003120b4 	ldrhteq	r2, [r1], -r4
  300644:	0030c8b4 	ldrhteq	ip, [r0], -r4
  300648:	003158b4 	ldrhteq	r5, [r1], -r4
  30064c:	0031b0b4 	ldrhteq	fp, [r1], -r4
  300650:	003190b4 	ldrhteq	r9, [r1], -r4
  300654:	0030d8b4 	ldrhteq	sp, [r0], -r4
  300658:	003198b4 	ldrhteq	r9, [r1], -r4
  30065c:	003178b4 	ldrhteq	r7, [r1], -r4
  300660:	0031a8b4 	ldrhteq	sl, [r1], -r4
  300664:	003108b4 	ldrhteq	r0, [r1], -r4
  300668:	003160b4 	ldrhteq	r6, [r1], -r4
  30066c:	003180b4 	ldrhteq	r8, [r1], -r4
  300670:	003170b4 	ldrhteq	r7, [r1], -r4
  300674:	003168b4 	ldrhteq	r6, [r1], -r4
  300678:	0030f0b4 	ldrhteq	pc, [r0], -r4	; <UNPREDICTABLE>
  30067c:	0031a0b4 	ldrhteq	sl, [r1], -r4
  300680:	0030d0b4 	ldrhteq	sp, [r0], -r4
  300684:	003150b4 	ldrhteq	r5, [r1], -r4
  300688:	003148b4 	ldrhteq	r4, [r1], -r4
  30068c:	0030f8b4 	ldrhteq	pc, [r0], -r4	; <UNPREDICTABLE>
  300690:	003138b4 	ldrhteq	r3, [r1], -r4
  300694:	003118b4 	ldrhteq	r1, [r1], -r4

00300698 <_sbrk>:
  300698:	ef000000 	svc	0x00000000
  30069c:	e12fff1e 	bx	lr

003006a0 <_write>:
  3006a0:	ef000001 	svc	0x00000001
  3006a4:	e12fff1e 	bx	lr

003006a8 <_close>:
  3006a8:	ef000002 	svc	0x00000002
  3006ac:	e12fff1e 	bx	lr

003006b0 <_fstat>:
  3006b0:	ef000003 	svc	0x00000003
  3006b4:	e12fff1e 	bx	lr

003006b8 <_isatty>:
  3006b8:	ef000004 	svc	0x00000004
  3006bc:	e12fff1e 	bx	lr

003006c0 <_lseek>:
  3006c0:	ef000005 	svc	0x00000005
  3006c4:	e12fff1e 	bx	lr

003006c8 <_read>:
  3006c8:	ef000006 	svc	0x00000006
  3006cc:	e12fff1e 	bx	lr

003006d0 <_exit>:
  3006d0:	ef000007 	svc	0x00000007
  3006d4:	e12fff1e 	bx	lr

003006d8 <sample_adc_start>:
  3006d8:	ef000008 	svc	0x00000008
  3006dc:	e12fff1e 	bx	lr

003006e0 <sample_adc_stop>:
  3006e0:	ef000009 	svc	0x00000009
  3006e4:	e12fff1e 	bx	lr

003006e8 <thread_init>:
  3006e8:	ef00000a 	svc	0x0000000a
  3006ec:	e12fff1e 	bx	lr

003006f0 <thread_create>:
  3006f0:	ef00000b 	svc	0x0000000b
  3006f4:	e12fff1e 	bx	lr

003006f8 <mutex_init>:
  3006f8:	ef00000c 	svc	0x0000000c
  3006fc:	e12fff1e 	bx	lr

00300700 <mutex_lock>:
  300700:	ef00000d 	svc	0x0000000d
  300704:	e12fff1e 	bx	lr

00300708 <mutex_unlock>:
  300708:	ef00000e 	svc	0x0000000e
  30070c:	e12fff1e 	bx	lr

00300710 <wait_until_next_period>:
  300710:	ef00000f 	svc	0x0000000f
  300714:	e12fff1e 	bx	lr

00300718 <get_time>:
  300718:	ef000010 	svc	0x00000010
  30071c:	e12fff1e 	bx	lr

00300720 <scheduler_start>:
  300720:	ef000011 	svc	0x00000011
  300724:	e12fff1e 	bx	lr

00300728 <get_priority>:
  300728:	ef000012 	svc	0x00000012
  30072c:	e12fff1e 	bx	lr

00300730 <spin_wait>:
  300730:	ef000013 	svc	0x00000013
  300734:	e12fff1e 	bx	lr

00300738 <_printf_r>:
  300738:	e92d000e 	push	{r1, r2, r3}
  30073c:	e52de004 	push	{lr}		; (str lr, [sp, #-4]!)
  300740:	e24dd008 	sub	sp, sp, #8
  300744:	e28dc010 	add	ip, sp, #16
  300748:	e1a0300c 	mov	r3, ip
  30074c:	e5901008 	ldr	r1, [r0, #8]
  300750:	e59d200c 	ldr	r2, [sp, #12]
  300754:	e58dc004 	str	ip, [sp, #4]
  300758:	eb000013 	bl	3007ac <_vfprintf_r>
  30075c:	e28dd008 	add	sp, sp, #8
  300760:	e49de004 	pop	{lr}		; (ldr lr, [sp], #4)
  300764:	e28dd00c 	add	sp, sp, #12
  300768:	e12fff1e 	bx	lr

0030076c <printf>:
  30076c:	e92d000f 	push	{r0, r1, r2, r3}
  300770:	e52de004 	push	{lr}		; (str lr, [sp, #-4]!)
  300774:	e59f302c 	ldr	r3, [pc, #44]	; 3007a8 <printf+0x3c>
  300778:	e24dd00c 	sub	sp, sp, #12
  30077c:	e5930000 	ldr	r0, [r3]
  300780:	e28dc014 	add	ip, sp, #20
  300784:	e5901008 	ldr	r1, [r0, #8]
  300788:	e1a0300c 	mov	r3, ip
  30078c:	e59d2010 	ldr	r2, [sp, #16]
  300790:	e58dc004 	str	ip, [sp, #4]
  300794:	eb000004 	bl	3007ac <_vfprintf_r>
  300798:	e28dd00c 	add	sp, sp, #12
  30079c:	e49de004 	pop	{lr}		; (ldr lr, [sp], #4)
  3007a0:	e28dd010 	add	sp, sp, #16
  3007a4:	e12fff1e 	bx	lr
  3007a8:	0030b000 	eorseq	fp, r0, r0

003007ac <_vfprintf_r>:
  3007ac:	e92d4ff0 	push	{r4, r5, r6, r7, r8, r9, sl, fp, lr}
  3007b0:	e24ddc05 	sub	sp, sp, #1280	; 0x500
  3007b4:	e24dd00c 	sub	sp, sp, #12
  3007b8:	e1a0b001 	mov	fp, r1
  3007bc:	e58d2028 	str	r2, [sp, #40]	; 0x28
  3007c0:	e58d3038 	str	r3, [sp, #56]	; 0x38
  3007c4:	e1a0a000 	mov	sl, r0
  3007c8:	eb0010d0 	bl	304b10 <_localeconv_r>
  3007cc:	e5903000 	ldr	r3, [r0]
  3007d0:	e1a00003 	mov	r0, r3
  3007d4:	e58d3058 	str	r3, [sp, #88]	; 0x58
  3007d8:	eb001802 	bl	3067e8 <strlen>
  3007dc:	e35a0000 	cmp	sl, #0
  3007e0:	e58d005c 	str	r0, [sp, #92]	; 0x5c
  3007e4:	0a000002 	beq	3007f4 <_vfprintf_r+0x48>
  3007e8:	e59a3038 	ldr	r3, [sl, #56]	; 0x38
  3007ec:	e3530000 	cmp	r3, #0
  3007f0:	0a000104 	beq	300c08 <_vfprintf_r+0x45c>
  3007f4:	e1db70bc 	ldrh	r7, [fp, #12]
  3007f8:	e3170a02 	tst	r7, #8192	; 0x2000
  3007fc:	e1a03007 	mov	r3, r7
  300800:	1a000005 	bne	30081c <_vfprintf_r+0x70>
  300804:	e3877a02 	orr	r7, r7, #8192	; 0x2000
  300808:	e1a03007 	mov	r3, r7
  30080c:	e59b2064 	ldr	r2, [fp, #100]	; 0x64
  300810:	e3c22a02 	bic	r2, r2, #8192	; 0x2000
  300814:	e1cb70bc 	strh	r7, [fp, #12]
  300818:	e58b2064 	str	r2, [fp, #100]	; 0x64
  30081c:	e3130008 	tst	r3, #8
  300820:	0a0000aa 	beq	300ad0 <_vfprintf_r+0x324>
  300824:	e59b2010 	ldr	r2, [fp, #16]
  300828:	e3520000 	cmp	r2, #0
  30082c:	0a0000a7 	beq	300ad0 <_vfprintf_r+0x324>
  300830:	e203301a 	and	r3, r3, #26
  300834:	e353000a 	cmp	r3, #10
  300838:	0a0000c7 	beq	300b5c <_vfprintf_r+0x3b0>
  30083c:	e3a03000 	mov	r3, #0
  300840:	e1a0800b 	mov	r8, fp
  300844:	e58d3048 	str	r3, [sp, #72]	; 0x48
  300848:	e58d3054 	str	r3, [sp, #84]	; 0x54
  30084c:	e58d3064 	str	r3, [sp, #100]	; 0x64
  300850:	e58d3030 	str	r3, [sp, #48]	; 0x30
  300854:	e58d304c 	str	r3, [sp, #76]	; 0x4c
  300858:	e58d3050 	str	r3, [sp, #80]	; 0x50
  30085c:	e58d309c 	str	r3, [sp, #156]	; 0x9c
  300860:	e58d3098 	str	r3, [sp, #152]	; 0x98
  300864:	e28d20c8 	add	r2, sp, #200	; 0xc8
  300868:	e28d30c7 	add	r3, sp, #199	; 0xc7
  30086c:	e28d9f42 	add	r9, sp, #264	; 0x108
  300870:	e58d3068 	str	r3, [sp, #104]	; 0x68
  300874:	e0633002 	rsb	r3, r3, r2
  300878:	e58d9094 	str	r9, [sp, #148]	; 0x94
  30087c:	e58d306c 	str	r3, [sp, #108]	; 0x6c
  300880:	e58da01c 	str	sl, [sp, #28]
  300884:	e59d4028 	ldr	r4, [sp, #40]	; 0x28
  300888:	e5d43000 	ldrb	r3, [r4]
  30088c:	e3530025 	cmp	r3, #37	; 0x25
  300890:	13530000 	cmpne	r3, #0
  300894:	0a0000de 	beq	300c14 <_vfprintf_r+0x468>
  300898:	e5f43001 	ldrb	r3, [r4, #1]!
  30089c:	e3530025 	cmp	r3, #37	; 0x25
  3008a0:	13530000 	cmpne	r3, #0
  3008a4:	1afffffb 	bne	300898 <_vfprintf_r+0xec>
  3008a8:	e59d1028 	ldr	r1, [sp, #40]	; 0x28
  3008ac:	e0545001 	subs	r5, r4, r1
  3008b0:	0a00000c 	beq	3008e8 <_vfprintf_r+0x13c>
  3008b4:	e59d3098 	ldr	r3, [sp, #152]	; 0x98
  3008b8:	e59d209c 	ldr	r2, [sp, #156]	; 0x9c
  3008bc:	e2833001 	add	r3, r3, #1
  3008c0:	e3530007 	cmp	r3, #7
  3008c4:	e0822005 	add	r2, r2, r5
  3008c8:	e8890022 	stm	r9, {r1, r5}
  3008cc:	e58d3098 	str	r3, [sp, #152]	; 0x98
  3008d0:	e58d209c 	str	r2, [sp, #156]	; 0x9c
  3008d4:	d2899008 	addle	r9, r9, #8
  3008d8:	ca000088 	bgt	300b00 <_vfprintf_r+0x354>
  3008dc:	e59d3030 	ldr	r3, [sp, #48]	; 0x30
  3008e0:	e0833005 	add	r3, r3, r5
  3008e4:	e58d3030 	str	r3, [sp, #48]	; 0x30
  3008e8:	e5d43000 	ldrb	r3, [r4]
  3008ec:	e3530000 	cmp	r3, #0
  3008f0:	0a0005e5 	beq	30208c <_vfprintf_r+0x18e0>
  3008f4:	e3a01000 	mov	r1, #0
  3008f8:	e2843001 	add	r3, r4, #1
  3008fc:	e1a02001 	mov	r2, r1
  300900:	e1a04001 	mov	r4, r1
  300904:	e3e0a000 	mvn	sl, #0
  300908:	e5cd1077 	strb	r1, [sp, #119]	; 0x77
  30090c:	e58d1034 	str	r1, [sp, #52]	; 0x34
  300910:	e5d37000 	ldrb	r7, [r3]
  300914:	e2831001 	add	r1, r3, #1
  300918:	e2473020 	sub	r3, r7, #32
  30091c:	e3530058 	cmp	r3, #88	; 0x58
  300920:	979ff103 	ldrls	pc, [pc, r3, lsl #2]
  300924:	ea000302 	b	301534 <_vfprintf_r+0xd88>
  300928:	00301148 	eorseq	r1, r0, r8, asr #2
  30092c:	00301534 	eorseq	r1, r0, r4, lsr r5
  300930:	00301534 	eorseq	r1, r0, r4, lsr r5
  300934:	00301158 	eorseq	r1, r0, r8, asr r1
  300938:	00301534 	eorseq	r1, r0, r4, lsr r5
  30093c:	00301534 	eorseq	r1, r0, r4, lsr r5
  300940:	00301534 	eorseq	r1, r0, r4, lsr r5
  300944:	00301534 	eorseq	r1, r0, r4, lsr r5
  300948:	00301534 	eorseq	r1, r0, r4, lsr r5
  30094c:	00301534 	eorseq	r1, r0, r4, lsr r5
  300950:	00300a98 	mlaseq	r0, r8, sl, r0
  300954:	00300c1c 	eorseq	r0, r0, ip, lsl ip
  300958:	00301534 	eorseq	r1, r0, r4, lsr r5
  30095c:	00300ac4 	eorseq	r0, r0, r4, asr #21
  300960:	00301164 	eorseq	r1, r0, r4, ror #2
  300964:	00301534 	eorseq	r1, r0, r4, lsr r5
  300968:	003011a4 	eorseq	r1, r0, r4, lsr #3
  30096c:	00301394 	mlaseq	r0, r4, r3, r1
  300970:	00301394 	mlaseq	r0, r4, r3, r1
  300974:	00301394 	mlaseq	r0, r4, r3, r1
  300978:	00301394 	mlaseq	r0, r4, r3, r1
  30097c:	00301394 	mlaseq	r0, r4, r3, r1
  300980:	00301394 	mlaseq	r0, r4, r3, r1
  300984:	00301394 	mlaseq	r0, r4, r3, r1
  300988:	00301394 	mlaseq	r0, r4, r3, r1
  30098c:	00301394 	mlaseq	r0, r4, r3, r1
  300990:	00301534 	eorseq	r1, r0, r4, lsr r5
  300994:	00301534 	eorseq	r1, r0, r4, lsr r5
  300998:	00301534 	eorseq	r1, r0, r4, lsr r5
  30099c:	00301534 	eorseq	r1, r0, r4, lsr r5
  3009a0:	00301534 	eorseq	r1, r0, r4, lsr r5
  3009a4:	00301534 	eorseq	r1, r0, r4, lsr r5
  3009a8:	00301534 	eorseq	r1, r0, r4, lsr r5
  3009ac:	00301534 	eorseq	r1, r0, r4, lsr r5
  3009b0:	00301534 	eorseq	r1, r0, r4, lsr r5
  3009b4:	00301534 	eorseq	r1, r0, r4, lsr r5
  3009b8:	003014b8 	ldrhteq	r1, [r0], -r8
  3009bc:	00301400 	eorseq	r1, r0, r0, lsl #8
  3009c0:	00301534 	eorseq	r1, r0, r4, lsr r5
  3009c4:	00301400 	eorseq	r1, r0, r0, lsl #8
  3009c8:	00301534 	eorseq	r1, r0, r4, lsr r5
  3009cc:	00301534 	eorseq	r1, r0, r4, lsr r5
  3009d0:	00301534 	eorseq	r1, r0, r4, lsr r5
  3009d4:	00301534 	eorseq	r1, r0, r4, lsr r5
  3009d8:	003014ac 	eorseq	r1, r0, ip, lsr #9
  3009dc:	00301534 	eorseq	r1, r0, r4, lsr r5
  3009e0:	00301534 	eorseq	r1, r0, r4, lsr r5
  3009e4:	003011b0 	ldrhteq	r1, [r0], -r0
  3009e8:	00301534 	eorseq	r1, r0, r4, lsr r5
  3009ec:	00301534 	eorseq	r1, r0, r4, lsr r5
  3009f0:	00301534 	eorseq	r1, r0, r4, lsr r5
  3009f4:	00301534 	eorseq	r1, r0, r4, lsr r5
  3009f8:	00301534 	eorseq	r1, r0, r4, lsr r5
  3009fc:	003011e0 	eorseq	r1, r0, r0, ror #3
  300a00:	00301534 	eorseq	r1, r0, r4, lsr r5
  300a04:	00301534 	eorseq	r1, r0, r4, lsr r5
  300a08:	00301220 	eorseq	r1, r0, r0, lsr #4
  300a0c:	00301534 	eorseq	r1, r0, r4, lsr r5
  300a10:	00301534 	eorseq	r1, r0, r4, lsr r5
  300a14:	00301534 	eorseq	r1, r0, r4, lsr r5
  300a18:	00301534 	eorseq	r1, r0, r4, lsr r5
  300a1c:	00301534 	eorseq	r1, r0, r4, lsr r5
  300a20:	00301534 	eorseq	r1, r0, r4, lsr r5
  300a24:	00301534 	eorseq	r1, r0, r4, lsr r5
  300a28:	00301534 	eorseq	r1, r0, r4, lsr r5
  300a2c:	00301534 	eorseq	r1, r0, r4, lsr r5
  300a30:	00301534 	eorseq	r1, r0, r4, lsr r5
  300a34:	00301284 	eorseq	r1, r0, r4, lsl #5
  300a38:	003012cc 	eorseq	r1, r0, ip, asr #5
  300a3c:	00301400 	eorseq	r1, r0, r0, lsl #8
  300a40:	00301400 	eorseq	r1, r0, r0, lsl #8
  300a44:	00301400 	eorseq	r1, r0, r0, lsl #8
  300a48:	00301314 	eorseq	r1, r0, r4, lsl r3
  300a4c:	003012cc 	eorseq	r1, r0, ip, asr #5
  300a50:	00301534 	eorseq	r1, r0, r4, lsr r5
  300a54:	00301534 	eorseq	r1, r0, r4, lsr r5
  300a58:	00300a8c 	eorseq	r0, r0, ip, lsl #21
  300a5c:	00301534 	eorseq	r1, r0, r4, lsr r5
  300a60:	00301360 	eorseq	r1, r0, r0, ror #6
  300a64:	003013bc 	ldrhteq	r1, [r0], -ip
  300a68:	003014f8 	ldrshteq	r1, [r0], -r8
  300a6c:	00300a8c 	eorseq	r0, r0, ip, lsl #21
  300a70:	00301534 	eorseq	r1, r0, r4, lsr r5
  300a74:	00300c28 	eorseq	r0, r0, r8, lsr #24
  300a78:	00301534 	eorseq	r1, r0, r4, lsr r5
  300a7c:	0030109c 	mlaseq	r0, ip, r0, r1
  300a80:	00301534 	eorseq	r1, r0, r4, lsr r5
  300a84:	00301534 	eorseq	r1, r0, r4, lsr r5
  300a88:	00301320 	eorseq	r1, r0, r0, lsr #6
  300a8c:	e3844010 	orr	r4, r4, #16
  300a90:	e1a03001 	mov	r3, r1
  300a94:	eaffff9d 	b	300910 <_vfprintf_r+0x164>
  300a98:	e59d3038 	ldr	r3, [sp, #56]	; 0x38
  300a9c:	e5930000 	ldr	r0, [r3]
  300aa0:	e58d0034 	str	r0, [sp, #52]	; 0x34
  300aa4:	e3500000 	cmp	r0, #0
  300aa8:	e2830004 	add	r0, r3, #4
  300aac:	e58d0038 	str	r0, [sp, #56]	; 0x38
  300ab0:	e1a03001 	mov	r3, r1
  300ab4:	aaffff95 	bge	300910 <_vfprintf_r+0x164>
  300ab8:	e59d3034 	ldr	r3, [sp, #52]	; 0x34
  300abc:	e2633000 	rsb	r3, r3, #0
  300ac0:	e58d3034 	str	r3, [sp, #52]	; 0x34
  300ac4:	e3844004 	orr	r4, r4, #4
  300ac8:	e1a03001 	mov	r3, r1
  300acc:	eaffff8f 	b	300910 <_vfprintf_r+0x164>
  300ad0:	e1a0000a 	mov	r0, sl
  300ad4:	e1a0100b 	mov	r1, fp
  300ad8:	eb0006c5 	bl	3025f4 <__swsetup_r>
  300adc:	e3500000 	cmp	r0, #0
  300ae0:	01db70bc 	ldrheq	r7, [fp, #12]
  300ae4:	01a03007 	moveq	r3, r7
  300ae8:	0affff50 	beq	300830 <_vfprintf_r+0x84>
  300aec:	e3e00000 	mvn	r0, #0
  300af0:	e28ddc05 	add	sp, sp, #1280	; 0x500
  300af4:	e28dd00c 	add	sp, sp, #12
  300af8:	e8bd4ff0 	pop	{r4, r5, r6, r7, r8, r9, sl, fp, lr}
  300afc:	e12fff1e 	bx	lr
  300b00:	e28d2094 	add	r2, sp, #148	; 0x94
  300b04:	e59d001c 	ldr	r0, [sp, #28]
  300b08:	e1a01008 	mov	r1, r8
  300b0c:	eb001778 	bl	3068f4 <__sprint_r>
  300b10:	e3500000 	cmp	r0, #0
  300b14:	1a000007 	bne	300b38 <_vfprintf_r+0x38c>
  300b18:	e28d9f42 	add	r9, sp, #264	; 0x108
  300b1c:	eaffff6e 	b	3008dc <_vfprintf_r+0x130>
  300b20:	e28d2094 	add	r2, sp, #148	; 0x94
  300b24:	e59d001c 	ldr	r0, [sp, #28]
  300b28:	e1a01008 	mov	r1, r8
  300b2c:	eb001770 	bl	3068f4 <__sprint_r>
  300b30:	e3500000 	cmp	r0, #0
  300b34:	0a000154 	beq	30108c <_vfprintf_r+0x8e0>
  300b38:	e1a0b008 	mov	fp, r8
  300b3c:	e1db30bc 	ldrh	r3, [fp, #12]
  300b40:	e3130040 	tst	r3, #64	; 0x40
  300b44:	1affffe8 	bne	300aec <_vfprintf_r+0x340>
  300b48:	e59d0030 	ldr	r0, [sp, #48]	; 0x30
  300b4c:	e28ddc05 	add	sp, sp, #1280	; 0x500
  300b50:	e28dd00c 	add	sp, sp, #12
  300b54:	e8bd4ff0 	pop	{r4, r5, r6, r7, r8, r9, sl, fp, lr}
  300b58:	e12fff1e 	bx	lr
  300b5c:	e1db00be 	ldrh	r0, [fp, #14]
  300b60:	e3100902 	tst	r0, #32768	; 0x8000
  300b64:	1affff34 	bne	30083c <_vfprintf_r+0x90>
  300b68:	e3a0cb01 	mov	ip, #1024	; 0x400
  300b6c:	e3a06000 	mov	r6, #0
  300b70:	e28d40a0 	add	r4, sp, #160	; 0xa0
  300b74:	e59b5064 	ldr	r5, [fp, #100]	; 0x64
  300b78:	e59be01c 	ldr	lr, [fp, #28]
  300b7c:	e59b8024 	ldr	r8, [fp, #36]	; 0x24
  300b80:	e3c77002 	bic	r7, r7, #2
  300b84:	e1c470bc 	strh	r7, [r4, #12]
  300b88:	e1c400be 	strh	r0, [r4, #14]
  300b8c:	e28d7f42 	add	r7, sp, #264	; 0x108
  300b90:	e59d2028 	ldr	r2, [sp, #40]	; 0x28
  300b94:	e59d3038 	ldr	r3, [sp, #56]	; 0x38
  300b98:	e1a01004 	mov	r1, r4
  300b9c:	e1a0000a 	mov	r0, sl
  300ba0:	e58d5104 	str	r5, [sp, #260]	; 0x104
  300ba4:	e58dc0a8 	str	ip, [sp, #168]	; 0xa8
  300ba8:	e58dc0b4 	str	ip, [sp, #180]	; 0xb4
  300bac:	e58d60b8 	str	r6, [sp, #184]	; 0xb8
  300bb0:	e58de0bc 	str	lr, [sp, #188]	; 0xbc
  300bb4:	e58d80c4 	str	r8, [sp, #196]	; 0xc4
  300bb8:	e58d70a0 	str	r7, [sp, #160]	; 0xa0
  300bbc:	e58d70b0 	str	r7, [sp, #176]	; 0xb0
  300bc0:	ebfffef9 	bl	3007ac <_vfprintf_r>
  300bc4:	e2505000 	subs	r5, r0, #0
  300bc8:	ba000004 	blt	300be0 <_vfprintf_r+0x434>
  300bcc:	e1a0000a 	mov	r0, sl
  300bd0:	e1a01004 	mov	r1, r4
  300bd4:	eb000cf2 	bl	303fa4 <_fflush_r>
  300bd8:	e1500006 	cmp	r0, r6
  300bdc:	13e05000 	mvnne	r5, #0
  300be0:	e1a00005 	mov	r0, r5
  300be4:	e1dd3abc 	ldrh	r3, [sp, #172]	; 0xac
  300be8:	e3130040 	tst	r3, #64	; 0x40
  300bec:	11db30bc 	ldrhne	r3, [fp, #12]
  300bf0:	13833040 	orrne	r3, r3, #64	; 0x40
  300bf4:	11cb30bc 	strhne	r3, [fp, #12]
  300bf8:	e28ddc05 	add	sp, sp, #1280	; 0x500
  300bfc:	e28dd00c 	add	sp, sp, #12
  300c00:	e8bd4ff0 	pop	{r4, r5, r6, r7, r8, r9, sl, fp, lr}
  300c04:	e12fff1e 	bx	lr
  300c08:	e1a0000a 	mov	r0, sl
  300c0c:	eb000e44 	bl	304524 <__sinit>
  300c10:	eafffef7 	b	3007f4 <_vfprintf_r+0x48>
  300c14:	e59d4028 	ldr	r4, [sp, #40]	; 0x28
  300c18:	eaffff32 	b	3008e8 <_vfprintf_r+0x13c>
  300c1c:	e1a03001 	mov	r3, r1
  300c20:	e3a0202b 	mov	r2, #43	; 0x2b
  300c24:	eaffff39 	b	300910 <_vfprintf_r+0x164>
  300c28:	e3a06000 	mov	r6, #0
  300c2c:	e59d3038 	ldr	r3, [sp, #56]	; 0x38
  300c30:	e5932000 	ldr	r2, [r3]
  300c34:	e1520006 	cmp	r2, r6
  300c38:	e58d1028 	str	r1, [sp, #40]	; 0x28
  300c3c:	e58d2044 	str	r2, [sp, #68]	; 0x44
  300c40:	e58da02c 	str	sl, [sp, #44]	; 0x2c
  300c44:	e5cd6077 	strb	r6, [sp, #119]	; 0x77
  300c48:	e2835004 	add	r5, r3, #4
  300c4c:	0a00058d 	beq	302288 <_vfprintf_r+0x1adc>
  300c50:	e59d302c 	ldr	r3, [sp, #44]	; 0x2c
  300c54:	e3530000 	cmp	r3, #0
  300c58:	e59d0044 	ldr	r0, [sp, #68]	; 0x44
  300c5c:	ba00057f 	blt	302260 <_vfprintf_r+0x1ab4>
  300c60:	e1a01006 	mov	r1, r6
  300c64:	e1a02003 	mov	r2, r3
  300c68:	eb0011db 	bl	3053dc <memchr>
  300c6c:	e3500000 	cmp	r0, #0
  300c70:	0a0005f2 	beq	302440 <_vfprintf_r+0x1c94>
  300c74:	e59d3044 	ldr	r3, [sp, #68]	; 0x44
  300c78:	e59d202c 	ldr	r2, [sp, #44]	; 0x2c
  300c7c:	e0633000 	rsb	r3, r3, r0
  300c80:	e1530002 	cmp	r3, r2
  300c84:	a1a03002 	movge	r3, r2
  300c88:	e58d302c 	str	r3, [sp, #44]	; 0x2c
  300c8c:	e1c33fc3 	bic	r3, r3, r3, asr #31
  300c90:	e58d5038 	str	r5, [sp, #56]	; 0x38
  300c94:	e58d4020 	str	r4, [sp, #32]
  300c98:	e58d6040 	str	r6, [sp, #64]	; 0x40
  300c9c:	e58d3024 	str	r3, [sp, #36]	; 0x24
  300ca0:	e5dd0077 	ldrb	r0, [sp, #119]	; 0x77
  300ca4:	e3500000 	cmp	r0, #0
  300ca8:	0a000002 	beq	300cb8 <_vfprintf_r+0x50c>
  300cac:	e59d3024 	ldr	r3, [sp, #36]	; 0x24
  300cb0:	e2833001 	add	r3, r3, #1
  300cb4:	e58d3024 	str	r3, [sp, #36]	; 0x24
  300cb8:	e59d3020 	ldr	r3, [sp, #32]
  300cbc:	e213b002 	ands	fp, r3, #2
  300cc0:	159d3024 	ldrne	r3, [sp, #36]	; 0x24
  300cc4:	12833002 	addne	r3, r3, #2
  300cc8:	158d3024 	strne	r3, [sp, #36]	; 0x24
  300ccc:	e59d3020 	ldr	r3, [sp, #32]
  300cd0:	e2133084 	ands	r3, r3, #132	; 0x84
  300cd4:	e58d303c 	str	r3, [sp, #60]	; 0x3c
  300cd8:	1a00003e 	bne	300dd8 <_vfprintf_r+0x62c>
  300cdc:	e59d3034 	ldr	r3, [sp, #52]	; 0x34
  300ce0:	e59d2024 	ldr	r2, [sp, #36]	; 0x24
  300ce4:	e0626003 	rsb	r6, r2, r3
  300ce8:	e3560000 	cmp	r6, #0
  300cec:	da000039 	ble	300dd8 <_vfprintf_r+0x62c>
  300cf0:	e3560010 	cmp	r6, #16
  300cf4:	da00055c 	ble	30226c <_vfprintf_r+0x1ac0>
  300cf8:	e28d4c05 	add	r4, sp, #1280	; 0x500
  300cfc:	e2844008 	add	r4, r4, #8
  300d00:	e5342470 	ldr	r2, [r4, #-1136]!	; 0x470
  300d04:	e59fafe8 	ldr	sl, [pc, #4072]	; 301cf4 <_vfprintf_r+0x1548>
  300d08:	e2444004 	sub	r4, r4, #4
  300d0c:	e58d7060 	str	r7, [sp, #96]	; 0x60
  300d10:	e3a05010 	mov	r5, #16
  300d14:	e1a0700a 	mov	r7, sl
  300d18:	e59d109c 	ldr	r1, [sp, #156]	; 0x9c
  300d1c:	e1a0a006 	mov	sl, r6
  300d20:	e1a06004 	mov	r6, r4
  300d24:	e59d401c 	ldr	r4, [sp, #28]
  300d28:	ea000002 	b	300d38 <_vfprintf_r+0x58c>
  300d2c:	e24aa010 	sub	sl, sl, #16
  300d30:	e35a0010 	cmp	sl, #16
  300d34:	da000014 	ble	300d8c <_vfprintf_r+0x5e0>
  300d38:	e2822001 	add	r2, r2, #1
  300d3c:	e3520007 	cmp	r2, #7
  300d40:	e2811010 	add	r1, r1, #16
  300d44:	e5897000 	str	r7, [r9]
  300d48:	e5895004 	str	r5, [r9, #4]
  300d4c:	e58d2098 	str	r2, [sp, #152]	; 0x98
  300d50:	e58d109c 	str	r1, [sp, #156]	; 0x9c
  300d54:	d2899008 	addle	r9, r9, #8
  300d58:	dafffff3 	ble	300d2c <_vfprintf_r+0x580>
  300d5c:	e1a00004 	mov	r0, r4
  300d60:	e1a01008 	mov	r1, r8
  300d64:	e1a02006 	mov	r2, r6
  300d68:	eb0016e1 	bl	3068f4 <__sprint_r>
  300d6c:	e3500000 	cmp	r0, #0
  300d70:	1affff70 	bne	300b38 <_vfprintf_r+0x38c>
  300d74:	e24aa010 	sub	sl, sl, #16
  300d78:	e35a0010 	cmp	sl, #16
  300d7c:	e28d9f42 	add	r9, sp, #264	; 0x108
  300d80:	e59d109c 	ldr	r1, [sp, #156]	; 0x9c
  300d84:	e59d2098 	ldr	r2, [sp, #152]	; 0x98
  300d88:	caffffea 	bgt	300d38 <_vfprintf_r+0x58c>
  300d8c:	e1a0600a 	mov	r6, sl
  300d90:	e1a0a007 	mov	sl, r7
  300d94:	e59d7060 	ldr	r7, [sp, #96]	; 0x60
  300d98:	e2824001 	add	r4, r2, #1
  300d9c:	e3540007 	cmp	r4, #7
  300da0:	e0865001 	add	r5, r6, r1
  300da4:	e589a000 	str	sl, [r9]
  300da8:	e5896004 	str	r6, [r9, #4]
  300dac:	e58d4098 	str	r4, [sp, #152]	; 0x98
  300db0:	e58d509c 	str	r5, [sp, #156]	; 0x9c
  300db4:	d2899008 	addle	r9, r9, #8
  300db8:	da000008 	ble	300de0 <_vfprintf_r+0x634>
  300dbc:	e28d2094 	add	r2, sp, #148	; 0x94
  300dc0:	e59d001c 	ldr	r0, [sp, #28]
  300dc4:	e1a01008 	mov	r1, r8
  300dc8:	eb0016c9 	bl	3068f4 <__sprint_r>
  300dcc:	e3500000 	cmp	r0, #0
  300dd0:	1affff58 	bne	300b38 <_vfprintf_r+0x38c>
  300dd4:	e28d9f42 	add	r9, sp, #264	; 0x108
  300dd8:	e28d4098 	add	r4, sp, #152	; 0x98
  300ddc:	e8940030 	ldm	r4, {r4, r5}
  300de0:	e5dd3077 	ldrb	r3, [sp, #119]	; 0x77
  300de4:	e3530000 	cmp	r3, #0
  300de8:	0a00000a 	beq	300e18 <_vfprintf_r+0x66c>
  300dec:	e3a02001 	mov	r2, #1
  300df0:	e0844002 	add	r4, r4, r2
  300df4:	e3540007 	cmp	r4, #7
  300df8:	e0855002 	add	r5, r5, r2
  300dfc:	e28d3077 	add	r3, sp, #119	; 0x77
  300e00:	e5892004 	str	r2, [r9, #4]
  300e04:	e5893000 	str	r3, [r9]
  300e08:	e58d4098 	str	r4, [sp, #152]	; 0x98
  300e0c:	e58d509c 	str	r5, [sp, #156]	; 0x9c
  300e10:	d2899008 	addle	r9, r9, #8
  300e14:	ca0002d9 	bgt	301980 <_vfprintf_r+0x11d4>
  300e18:	e35b0000 	cmp	fp, #0
  300e1c:	0a00000a 	beq	300e4c <_vfprintf_r+0x6a0>
  300e20:	e3a02002 	mov	r2, #2
  300e24:	e2844001 	add	r4, r4, #1
  300e28:	e3540007 	cmp	r4, #7
  300e2c:	e0855002 	add	r5, r5, r2
  300e30:	e28d3078 	add	r3, sp, #120	; 0x78
  300e34:	e5892004 	str	r2, [r9, #4]
  300e38:	e5893000 	str	r3, [r9]
  300e3c:	e58d4098 	str	r4, [sp, #152]	; 0x98
  300e40:	e58d509c 	str	r5, [sp, #156]	; 0x9c
  300e44:	d2899008 	addle	r9, r9, #8
  300e48:	ca0002d6 	bgt	3019a8 <_vfprintf_r+0x11fc>
  300e4c:	e59d303c 	ldr	r3, [sp, #60]	; 0x3c
  300e50:	e3530080 	cmp	r3, #128	; 0x80
  300e54:	0a000221 	beq	3016e0 <_vfprintf_r+0xf34>
  300e58:	e59d3040 	ldr	r3, [sp, #64]	; 0x40
  300e5c:	e59d202c 	ldr	r2, [sp, #44]	; 0x2c
  300e60:	e0626003 	rsb	r6, r2, r3
  300e64:	e3560000 	cmp	r6, #0
  300e68:	da000038 	ble	300f50 <_vfprintf_r+0x7a4>
  300e6c:	e3560010 	cmp	r6, #16
  300e70:	d59fbe98 	ldrle	fp, [pc, #3736]	; 301d10 <_vfprintf_r+0x1564>
  300e74:	da000023 	ble	300f08 <_vfprintf_r+0x75c>
  300e78:	e59fbe90 	ldr	fp, [pc, #3728]	; 301d10 <_vfprintf_r+0x1564>
  300e7c:	e1a0200b 	mov	r2, fp
  300e80:	e28d3094 	add	r3, sp, #148	; 0x94
  300e84:	e58d703c 	str	r7, [sp, #60]	; 0x3c
  300e88:	e1a0b006 	mov	fp, r6
  300e8c:	e3a0a010 	mov	sl, #16
  300e90:	e1a07003 	mov	r7, r3
  300e94:	e1a06002 	mov	r6, r2
  300e98:	ea000002 	b	300ea8 <_vfprintf_r+0x6fc>
  300e9c:	e24bb010 	sub	fp, fp, #16
  300ea0:	e35b0010 	cmp	fp, #16
  300ea4:	da000013 	ble	300ef8 <_vfprintf_r+0x74c>
  300ea8:	e2844001 	add	r4, r4, #1
  300eac:	e3540007 	cmp	r4, #7
  300eb0:	e2855010 	add	r5, r5, #16
  300eb4:	e8890440 	stm	r9, {r6, sl}
  300eb8:	e58d4098 	str	r4, [sp, #152]	; 0x98
  300ebc:	e58d509c 	str	r5, [sp, #156]	; 0x9c
  300ec0:	d2899008 	addle	r9, r9, #8
  300ec4:	dafffff4 	ble	300e9c <_vfprintf_r+0x6f0>
  300ec8:	e59d001c 	ldr	r0, [sp, #28]
  300ecc:	e1a01008 	mov	r1, r8
  300ed0:	e1a02007 	mov	r2, r7
  300ed4:	eb001686 	bl	3068f4 <__sprint_r>
  300ed8:	e3500000 	cmp	r0, #0
  300edc:	1affff15 	bne	300b38 <_vfprintf_r+0x38c>
  300ee0:	e24bb010 	sub	fp, fp, #16
  300ee4:	e28d4098 	add	r4, sp, #152	; 0x98
  300ee8:	e35b0010 	cmp	fp, #16
  300eec:	e28d9f42 	add	r9, sp, #264	; 0x108
  300ef0:	e8940030 	ldm	r4, {r4, r5}
  300ef4:	caffffeb 	bgt	300ea8 <_vfprintf_r+0x6fc>
  300ef8:	e1a03006 	mov	r3, r6
  300efc:	e1a0600b 	mov	r6, fp
  300f00:	e1a0b003 	mov	fp, r3
  300f04:	e59d703c 	ldr	r7, [sp, #60]	; 0x3c
  300f08:	e2844001 	add	r4, r4, #1
  300f0c:	e3540007 	cmp	r4, #7
  300f10:	e0855006 	add	r5, r5, r6
  300f14:	e589b000 	str	fp, [r9]
  300f18:	e5896004 	str	r6, [r9, #4]
  300f1c:	e58d4098 	str	r4, [sp, #152]	; 0x98
  300f20:	e58d509c 	str	r5, [sp, #156]	; 0x9c
  300f24:	d2899008 	addle	r9, r9, #8
  300f28:	da000008 	ble	300f50 <_vfprintf_r+0x7a4>
  300f2c:	e28d2094 	add	r2, sp, #148	; 0x94
  300f30:	e59d001c 	ldr	r0, [sp, #28]
  300f34:	e1a01008 	mov	r1, r8
  300f38:	eb00166d 	bl	3068f4 <__sprint_r>
  300f3c:	e3500000 	cmp	r0, #0
  300f40:	1afffefc 	bne	300b38 <_vfprintf_r+0x38c>
  300f44:	e28d4098 	add	r4, sp, #152	; 0x98
  300f48:	e8940030 	ldm	r4, {r4, r5}
  300f4c:	e28d9f42 	add	r9, sp, #264	; 0x108
  300f50:	e59d3020 	ldr	r3, [sp, #32]
  300f54:	e3130c01 	tst	r3, #256	; 0x100
  300f58:	1a00018a 	bne	301588 <_vfprintf_r+0xddc>
  300f5c:	e2844001 	add	r4, r4, #1
  300f60:	e59d302c 	ldr	r3, [sp, #44]	; 0x2c
  300f64:	e58d4098 	str	r4, [sp, #152]	; 0x98
  300f68:	e3540007 	cmp	r4, #7
  300f6c:	e0835005 	add	r5, r3, r5
  300f70:	e59d2044 	ldr	r2, [sp, #68]	; 0x44
  300f74:	e58d509c 	str	r5, [sp, #156]	; 0x9c
  300f78:	e889000c 	stm	r9, {r2, r3}
  300f7c:	ca000276 	bgt	30195c <_vfprintf_r+0x11b0>
  300f80:	e2899008 	add	r9, r9, #8
  300f84:	e59d3020 	ldr	r3, [sp, #32]
  300f88:	e3130004 	tst	r3, #4
  300f8c:	0a000035 	beq	301068 <_vfprintf_r+0x8bc>
  300f90:	e59d3034 	ldr	r3, [sp, #52]	; 0x34
  300f94:	e59d2024 	ldr	r2, [sp, #36]	; 0x24
  300f98:	e0624003 	rsb	r4, r2, r3
  300f9c:	e3540000 	cmp	r4, #0
  300fa0:	da000030 	ble	301068 <_vfprintf_r+0x8bc>
  300fa4:	e3540010 	cmp	r4, #16
  300fa8:	da0004b3 	ble	30227c <_vfprintf_r+0x1ad0>
  300fac:	e28d6c05 	add	r6, sp, #1280	; 0x500
  300fb0:	e2866008 	add	r6, r6, #8
  300fb4:	e5362470 	ldr	r2, [r6, #-1136]!	; 0x470
  300fb8:	e3a07010 	mov	r7, #16
  300fbc:	e59fad30 	ldr	sl, [pc, #3376]	; 301cf4 <_vfprintf_r+0x1548>
  300fc0:	e2466004 	sub	r6, r6, #4
  300fc4:	e59db01c 	ldr	fp, [sp, #28]
  300fc8:	ea000002 	b	300fd8 <_vfprintf_r+0x82c>
  300fcc:	e2444010 	sub	r4, r4, #16
  300fd0:	e3540010 	cmp	r4, #16
  300fd4:	da000014 	ble	30102c <_vfprintf_r+0x880>
  300fd8:	e2822001 	add	r2, r2, #1
  300fdc:	e3520007 	cmp	r2, #7
  300fe0:	e2855010 	add	r5, r5, #16
  300fe4:	e589a000 	str	sl, [r9]
  300fe8:	e5897004 	str	r7, [r9, #4]
  300fec:	e58d2098 	str	r2, [sp, #152]	; 0x98
  300ff0:	e58d509c 	str	r5, [sp, #156]	; 0x9c
  300ff4:	d2899008 	addle	r9, r9, #8
  300ff8:	dafffff3 	ble	300fcc <_vfprintf_r+0x820>
  300ffc:	e1a0000b 	mov	r0, fp
  301000:	e1a01008 	mov	r1, r8
  301004:	e1a02006 	mov	r2, r6
  301008:	eb001639 	bl	3068f4 <__sprint_r>
  30100c:	e3500000 	cmp	r0, #0
  301010:	1afffec8 	bne	300b38 <_vfprintf_r+0x38c>
  301014:	e2444010 	sub	r4, r4, #16
  301018:	e28d2098 	add	r2, sp, #152	; 0x98
  30101c:	e3540010 	cmp	r4, #16
  301020:	e28d9f42 	add	r9, sp, #264	; 0x108
  301024:	e8920024 	ldm	r2, {r2, r5}
  301028:	caffffea 	bgt	300fd8 <_vfprintf_r+0x82c>
  30102c:	e2822001 	add	r2, r2, #1
  301030:	e0855004 	add	r5, r5, r4
  301034:	e3520007 	cmp	r2, #7
  301038:	e58d2098 	str	r2, [sp, #152]	; 0x98
  30103c:	e58d509c 	str	r5, [sp, #156]	; 0x9c
  301040:	e589a000 	str	sl, [r9]
  301044:	e5894004 	str	r4, [r9, #4]
  301048:	da000006 	ble	301068 <_vfprintf_r+0x8bc>
  30104c:	e28d2094 	add	r2, sp, #148	; 0x94
  301050:	e59d001c 	ldr	r0, [sp, #28]
  301054:	e1a01008 	mov	r1, r8
  301058:	eb001625 	bl	3068f4 <__sprint_r>
  30105c:	e3500000 	cmp	r0, #0
  301060:	1afffeb4 	bne	300b38 <_vfprintf_r+0x38c>
  301064:	e59d509c 	ldr	r5, [sp, #156]	; 0x9c
  301068:	e59d3030 	ldr	r3, [sp, #48]	; 0x30
  30106c:	e59d2024 	ldr	r2, [sp, #36]	; 0x24
  301070:	e59d1034 	ldr	r1, [sp, #52]	; 0x34
  301074:	e1520001 	cmp	r2, r1
  301078:	a0833002 	addge	r3, r3, r2
  30107c:	b0833001 	addlt	r3, r3, r1
  301080:	e3550000 	cmp	r5, #0
  301084:	e58d3030 	str	r3, [sp, #48]	; 0x30
  301088:	1afffea4 	bne	300b20 <_vfprintf_r+0x374>
  30108c:	e3a03000 	mov	r3, #0
  301090:	e28d9f42 	add	r9, sp, #264	; 0x108
  301094:	e58d3098 	str	r3, [sp, #152]	; 0x98
  301098:	eafffdf9 	b	300884 <_vfprintf_r+0xd8>
  30109c:	e58d4020 	str	r4, [sp, #32]
  3010a0:	e59d3020 	ldr	r3, [sp, #32]
  3010a4:	e3130010 	tst	r3, #16
  3010a8:	e58d1028 	str	r1, [sp, #40]	; 0x28
  3010ac:	0a000051 	beq	3011f8 <_vfprintf_r+0xa4c>
  3010b0:	e3a02001 	mov	r2, #1
  3010b4:	e59d1038 	ldr	r1, [sp, #56]	; 0x38
  3010b8:	e5913000 	ldr	r3, [r1]
  3010bc:	e2811004 	add	r1, r1, #4
  3010c0:	e58d1038 	str	r1, [sp, #56]	; 0x38
  3010c4:	e3a01000 	mov	r1, #0
  3010c8:	e1a00001 	mov	r0, r1
  3010cc:	e58da040 	str	sl, [sp, #64]	; 0x40
  3010d0:	e5cd1077 	strb	r1, [sp, #119]	; 0x77
  3010d4:	e35a0000 	cmp	sl, #0
  3010d8:	a59d1020 	ldrge	r1, [sp, #32]
  3010dc:	a3c11080 	bicge	r1, r1, #128	; 0x80
  3010e0:	a58d1020 	strge	r1, [sp, #32]
  3010e4:	e3530000 	cmp	r3, #0
  3010e8:	035a0000 	cmpeq	sl, #0
  3010ec:	13a01001 	movne	r1, #1
  3010f0:	03a01000 	moveq	r1, #0
  3010f4:	0a00016d 	beq	3016b0 <_vfprintf_r+0xf04>
  3010f8:	e3520001 	cmp	r2, #1
  3010fc:	0a00027e 	beq	301afc <_vfprintf_r+0x1350>
  301100:	e3520002 	cmp	r2, #2
  301104:	1a000264 	bne	301a9c <_vfprintf_r+0x12f0>
  301108:	e59dc054 	ldr	ip, [sp, #84]	; 0x54
  30110c:	e28d20c8 	add	r2, sp, #200	; 0xc8
  301110:	e203100f 	and	r1, r3, #15
  301114:	e7dc1001 	ldrb	r1, [ip, r1]
  301118:	e1b03223 	lsrs	r3, r3, #4
  30111c:	e5621001 	strb	r1, [r2, #-1]!
  301120:	1afffffa 	bne	301110 <_vfprintf_r+0x964>
  301124:	e28d30c8 	add	r3, sp, #200	; 0xc8
  301128:	e0623003 	rsb	r3, r2, r3
  30112c:	e58d2044 	str	r2, [sp, #68]	; 0x44
  301130:	e58d302c 	str	r3, [sp, #44]	; 0x2c
  301134:	e59d302c 	ldr	r3, [sp, #44]	; 0x2c
  301138:	e153000a 	cmp	r3, sl
  30113c:	b1a0300a 	movlt	r3, sl
  301140:	e58d3024 	str	r3, [sp, #36]	; 0x24
  301144:	eafffed6 	b	300ca4 <_vfprintf_r+0x4f8>
  301148:	e3520000 	cmp	r2, #0
  30114c:	e1a03001 	mov	r3, r1
  301150:	03a02020 	moveq	r2, #32
  301154:	eafffded 	b	300910 <_vfprintf_r+0x164>
  301158:	e3844001 	orr	r4, r4, #1
  30115c:	e1a03001 	mov	r3, r1
  301160:	eafffdea 	b	300910 <_vfprintf_r+0x164>
  301164:	e5d17000 	ldrb	r7, [r1]
  301168:	e357002a 	cmp	r7, #42	; 0x2a
  30116c:	e2811001 	add	r1, r1, #1
  301170:	0a0004fd 	beq	30256c <_vfprintf_r+0x1dc0>
  301174:	e2470030 	sub	r0, r7, #48	; 0x30
  301178:	e3500009 	cmp	r0, #9
  30117c:	e3a0a000 	mov	sl, #0
  301180:	8afffde4 	bhi	300918 <_vfprintf_r+0x16c>
  301184:	e4d17001 	ldrb	r7, [r1], #1
  301188:	e08aa10a 	add	sl, sl, sl, lsl #2
  30118c:	e080a08a 	add	sl, r0, sl, lsl #1
  301190:	e2470030 	sub	r0, r7, #48	; 0x30
  301194:	e3500009 	cmp	r0, #9
  301198:	9afffff9 	bls	301184 <_vfprintf_r+0x9d8>
  30119c:	e18aafca 	orr	sl, sl, sl, asr #31
  3011a0:	eafffddc 	b	300918 <_vfprintf_r+0x16c>
  3011a4:	e3844080 	orr	r4, r4, #128	; 0x80
  3011a8:	e1a03001 	mov	r3, r1
  3011ac:	eafffdd7 	b	300910 <_vfprintf_r+0x164>
  3011b0:	e3843010 	orr	r3, r4, #16
  3011b4:	e58d3020 	str	r3, [sp, #32]
  3011b8:	e59d3020 	ldr	r3, [sp, #32]
  3011bc:	e2133010 	ands	r3, r3, #16
  3011c0:	e58d1028 	str	r1, [sp, #40]	; 0x28
  3011c4:	0a000081 	beq	3013d0 <_vfprintf_r+0xc24>
  3011c8:	e59d1038 	ldr	r1, [sp, #56]	; 0x38
  3011cc:	e5913000 	ldr	r3, [r1]
  3011d0:	e2811004 	add	r1, r1, #4
  3011d4:	e3a02000 	mov	r2, #0
  3011d8:	e58d1038 	str	r1, [sp, #56]	; 0x38
  3011dc:	eaffffb8 	b	3010c4 <_vfprintf_r+0x918>
  3011e0:	e3843010 	orr	r3, r4, #16
  3011e4:	e58d3020 	str	r3, [sp, #32]
  3011e8:	e59d3020 	ldr	r3, [sp, #32]
  3011ec:	e3130010 	tst	r3, #16
  3011f0:	e58d1028 	str	r1, [sp, #40]	; 0x28
  3011f4:	1affffad 	bne	3010b0 <_vfprintf_r+0x904>
  3011f8:	e59d1038 	ldr	r1, [sp, #56]	; 0x38
  3011fc:	e59d3020 	ldr	r3, [sp, #32]
  301200:	e3130040 	tst	r3, #64	; 0x40
  301204:	e1a03001 	mov	r3, r1
  301208:	11d130b0 	ldrhne	r3, [r1]
  30120c:	e2811004 	add	r1, r1, #4
  301210:	05933000 	ldreq	r3, [r3]
  301214:	e3a02001 	mov	r2, #1
  301218:	e58d1038 	str	r1, [sp, #56]	; 0x38
  30121c:	eaffffa8 	b	3010c4 <_vfprintf_r+0x918>
  301220:	e59f3ad0 	ldr	r3, [pc, #2768]	; 301cf8 <_vfprintf_r+0x154c>
  301224:	e5cd2077 	strb	r2, [sp, #119]	; 0x77
  301228:	e59d2038 	ldr	r2, [sp, #56]	; 0x38
  30122c:	e3140010 	tst	r4, #16
  301230:	e58d3054 	str	r3, [sp, #84]	; 0x54
  301234:	e58d1028 	str	r1, [sp, #40]	; 0x28
  301238:	e58d4020 	str	r4, [sp, #32]
  30123c:	e1a03002 	mov	r3, r2
  301240:	1a00003f 	bne	301344 <_vfprintf_r+0xb98>
  301244:	e3140040 	tst	r4, #64	; 0x40
  301248:	0a00003d 	beq	301344 <_vfprintf_r+0xb98>
  30124c:	e1d230b0 	ldrh	r3, [r2]
  301250:	e3140001 	tst	r4, #1
  301254:	e2822004 	add	r2, r2, #4
  301258:	e58d2038 	str	r2, [sp, #56]	; 0x38
  30125c:	0a00003d 	beq	301358 <_vfprintf_r+0xbac>
  301260:	e3530000 	cmp	r3, #0
  301264:	0a00003b 	beq	301358 <_vfprintf_r+0xbac>
  301268:	e3a02030 	mov	r2, #48	; 0x30
  30126c:	e3841002 	orr	r1, r4, #2
  301270:	e5cd2078 	strb	r2, [sp, #120]	; 0x78
  301274:	e5cd7079 	strb	r7, [sp, #121]	; 0x79
  301278:	e58d1020 	str	r1, [sp, #32]
  30127c:	e3a02002 	mov	r2, #2
  301280:	eaffff8f 	b	3010c4 <_vfprintf_r+0x918>
  301284:	e3a03001 	mov	r3, #1
  301288:	e58d1028 	str	r1, [sp, #40]	; 0x28
  30128c:	e3a02000 	mov	r2, #0
  301290:	e1a01003 	mov	r1, r3
  301294:	e59d0038 	ldr	r0, [sp, #56]	; 0x38
  301298:	e58d3024 	str	r3, [sp, #36]	; 0x24
  30129c:	e5903000 	ldr	r3, [r0]
  3012a0:	e5cd30a0 	strb	r3, [sp, #160]	; 0xa0
  3012a4:	e2803004 	add	r3, r0, #4
  3012a8:	e58d3038 	str	r3, [sp, #56]	; 0x38
  3012ac:	e28d30a0 	add	r3, sp, #160	; 0xa0
  3012b0:	e58d4020 	str	r4, [sp, #32]
  3012b4:	e5cd2077 	strb	r2, [sp, #119]	; 0x77
  3012b8:	e58d102c 	str	r1, [sp, #44]	; 0x2c
  3012bc:	e58d3044 	str	r3, [sp, #68]	; 0x44
  3012c0:	e3a03000 	mov	r3, #0
  3012c4:	e58d3040 	str	r3, [sp, #64]	; 0x40
  3012c8:	eafffe7a 	b	300cb8 <_vfprintf_r+0x50c>
  3012cc:	e58d4020 	str	r4, [sp, #32]
  3012d0:	e59d3020 	ldr	r3, [sp, #32]
  3012d4:	e3130010 	tst	r3, #16
  3012d8:	e58d1028 	str	r1, [sp, #40]	; 0x28
  3012dc:	e5cd2077 	strb	r2, [sp, #119]	; 0x77
  3012e0:	0a00007b 	beq	3014d4 <_vfprintf_r+0xd28>
  3012e4:	e59d2038 	ldr	r2, [sp, #56]	; 0x38
  3012e8:	e5923000 	ldr	r3, [r2]
  3012ec:	e2822004 	add	r2, r2, #4
  3012f0:	e58d2038 	str	r2, [sp, #56]	; 0x38
  3012f4:	e3530000 	cmp	r3, #0
  3012f8:	b3a0002d 	movlt	r0, #45	; 0x2d
  3012fc:	a5dd0077 	ldrbge	r0, [sp, #119]	; 0x77
  301300:	b2633000 	rsblt	r3, r3, #0
  301304:	b5cd0077 	strblt	r0, [sp, #119]	; 0x77
  301308:	e58da040 	str	sl, [sp, #64]	; 0x40
  30130c:	e3a02001 	mov	r2, #1
  301310:	eaffff6f 	b	3010d4 <_vfprintf_r+0x928>
  301314:	e3844040 	orr	r4, r4, #64	; 0x40
  301318:	e1a03001 	mov	r3, r1
  30131c:	eafffd7b 	b	300910 <_vfprintf_r+0x164>
  301320:	e59f39d4 	ldr	r3, [pc, #2516]	; 301cfc <_vfprintf_r+0x1550>
  301324:	e5cd2077 	strb	r2, [sp, #119]	; 0x77
  301328:	e59d2038 	ldr	r2, [sp, #56]	; 0x38
  30132c:	e3140010 	tst	r4, #16
  301330:	e58d3054 	str	r3, [sp, #84]	; 0x54
  301334:	e58d1028 	str	r1, [sp, #40]	; 0x28
  301338:	e58d4020 	str	r4, [sp, #32]
  30133c:	e1a03002 	mov	r3, r2
  301340:	0affffbf 	beq	301244 <_vfprintf_r+0xa98>
  301344:	e2822004 	add	r2, r2, #4
  301348:	e3140001 	tst	r4, #1
  30134c:	e5933000 	ldr	r3, [r3]
  301350:	e58d2038 	str	r2, [sp, #56]	; 0x38
  301354:	1affffc1 	bne	301260 <_vfprintf_r+0xab4>
  301358:	e3a02002 	mov	r2, #2
  30135c:	eaffff58 	b	3010c4 <_vfprintf_r+0x918>
  301360:	e3140010 	tst	r4, #16
  301364:	e58d1028 	str	r1, [sp, #40]	; 0x28
  301368:	e5cd2077 	strb	r2, [sp, #119]	; 0x77
  30136c:	1a00007e 	bne	30156c <_vfprintf_r+0xdc0>
  301370:	e3140040 	tst	r4, #64	; 0x40
  301374:	0a00007c 	beq	30156c <_vfprintf_r+0xdc0>
  301378:	e59d2038 	ldr	r2, [sp, #56]	; 0x38
  30137c:	e5923000 	ldr	r3, [r2]
  301380:	e2822004 	add	r2, r2, #4
  301384:	e58d2038 	str	r2, [sp, #56]	; 0x38
  301388:	e1dd23b0 	ldrh	r2, [sp, #48]	; 0x30
  30138c:	e1c320b0 	strh	r2, [r3]
  301390:	eafffd3b 	b	300884 <_vfprintf_r+0xd8>
  301394:	e3a03000 	mov	r3, #0
  301398:	e2470030 	sub	r0, r7, #48	; 0x30
  30139c:	e4d17001 	ldrb	r7, [r1], #1
  3013a0:	e0833103 	add	r3, r3, r3, lsl #2
  3013a4:	e0803083 	add	r3, r0, r3, lsl #1
  3013a8:	e2470030 	sub	r0, r7, #48	; 0x30
  3013ac:	e3500009 	cmp	r0, #9
  3013b0:	9afffff9 	bls	30139c <_vfprintf_r+0xbf0>
  3013b4:	e58d3034 	str	r3, [sp, #52]	; 0x34
  3013b8:	eafffd56 	b	300918 <_vfprintf_r+0x16c>
  3013bc:	e58d4020 	str	r4, [sp, #32]
  3013c0:	e59d3020 	ldr	r3, [sp, #32]
  3013c4:	e2133010 	ands	r3, r3, #16
  3013c8:	e58d1028 	str	r1, [sp, #40]	; 0x28
  3013cc:	1affff7d 	bne	3011c8 <_vfprintf_r+0xa1c>
  3013d0:	e59d2020 	ldr	r2, [sp, #32]
  3013d4:	e2122040 	ands	r2, r2, #64	; 0x40
  3013d8:	159d1038 	ldrne	r1, [sp, #56]	; 0x38
  3013dc:	059d1038 	ldreq	r1, [sp, #56]	; 0x38
  3013e0:	11a02003 	movne	r2, r3
  3013e4:	01a03001 	moveq	r3, r1
  3013e8:	11a03001 	movne	r3, r1
  3013ec:	e2811004 	add	r1, r1, #4
  3013f0:	11d330b0 	ldrhne	r3, [r3]
  3013f4:	05933000 	ldreq	r3, [r3]
  3013f8:	e58d1038 	str	r1, [sp, #56]	; 0x38
  3013fc:	eaffff30 	b	3010c4 <_vfprintf_r+0x918>
  301400:	e59d3038 	ldr	r3, [sp, #56]	; 0x38
  301404:	e3140008 	tst	r4, #8
  301408:	e58d1028 	str	r1, [sp, #40]	; 0x28
  30140c:	e5cd2077 	strb	r2, [sp, #119]	; 0x77
  301410:	e1a0b00a 	mov	fp, sl
  301414:	e2835007 	add	r5, r3, #7
  301418:	0a0002af 	beq	301edc <_vfprintf_r+0x1730>
  30141c:	e3c53007 	bic	r3, r5, #7
  301420:	e2832008 	add	r2, r3, #8
  301424:	e58d2038 	str	r2, [sp, #56]	; 0x38
  301428:	e5932000 	ldr	r2, [r3]
  30142c:	e5933004 	ldr	r3, [r3, #4]
  301430:	e58d204c 	str	r2, [sp, #76]	; 0x4c
  301434:	e58d3050 	str	r3, [sp, #80]	; 0x50
  301438:	e28d004c 	add	r0, sp, #76	; 0x4c
  30143c:	e8900003 	ldm	r0, {r0, r1}
  301440:	eb0013fa 	bl	306430 <__fpclassifyd>
  301444:	e3500001 	cmp	r0, #1
  301448:	e28d004c 	add	r0, sp, #76	; 0x4c
  30144c:	e8900003 	ldm	r0, {r0, r1}
  301450:	1a00023f 	bne	301d54 <_vfprintf_r+0x15a8>
  301454:	e3a03000 	mov	r3, #0
  301458:	e3a02000 	mov	r2, #0
  30145c:	eb0021ba 	bl	309b4c <__aeabi_dcmplt>
  301460:	e3500000 	cmp	r0, #0
  301464:	13a0302d 	movne	r3, #45	; 0x2d
  301468:	11a00003 	movne	r0, r3
  30146c:	15cd3077 	strbne	r3, [sp, #119]	; 0x77
  301470:	e3a03003 	mov	r3, #3
  301474:	e1a01003 	mov	r1, r3
  301478:	e58d3024 	str	r3, [sp, #36]	; 0x24
  30147c:	e59f387c 	ldr	r3, [pc, #2172]	; 301d00 <_vfprintf_r+0x1554>
  301480:	05dd0077 	ldrbeq	r0, [sp, #119]	; 0x77
  301484:	e3570047 	cmp	r7, #71	; 0x47
  301488:	e59f2874 	ldr	r2, [pc, #2164]	; 301d04 <_vfprintf_r+0x1558>
  30148c:	d1a02003 	movle	r2, r3
  301490:	e3a03000 	mov	r3, #0
  301494:	e3c4c080 	bic	ip, r4, #128	; 0x80
  301498:	e58dc020 	str	ip, [sp, #32]
  30149c:	e58d102c 	str	r1, [sp, #44]	; 0x2c
  3014a0:	e58d2044 	str	r2, [sp, #68]	; 0x44
  3014a4:	e58d3040 	str	r3, [sp, #64]	; 0x40
  3014a8:	eafffdfd 	b	300ca4 <_vfprintf_r+0x4f8>
  3014ac:	e3844008 	orr	r4, r4, #8
  3014b0:	e1a03001 	mov	r3, r1
  3014b4:	eafffd15 	b	300910 <_vfprintf_r+0x164>
  3014b8:	e3843010 	orr	r3, r4, #16
  3014bc:	e58d3020 	str	r3, [sp, #32]
  3014c0:	e59d3020 	ldr	r3, [sp, #32]
  3014c4:	e3130010 	tst	r3, #16
  3014c8:	e58d1028 	str	r1, [sp, #40]	; 0x28
  3014cc:	e5cd2077 	strb	r2, [sp, #119]	; 0x77
  3014d0:	1affff83 	bne	3012e4 <_vfprintf_r+0xb38>
  3014d4:	e59d2038 	ldr	r2, [sp, #56]	; 0x38
  3014d8:	e59d3020 	ldr	r3, [sp, #32]
  3014dc:	e3130040 	tst	r3, #64	; 0x40
  3014e0:	e1a03002 	mov	r3, r2
  3014e4:	11d230f0 	ldrshne	r3, [r2]
  3014e8:	e2822004 	add	r2, r2, #4
  3014ec:	05933000 	ldreq	r3, [r3]
  3014f0:	e58d2038 	str	r2, [sp, #56]	; 0x38
  3014f4:	eaffff7e 	b	3012f4 <_vfprintf_r+0xb48>
  3014f8:	e3a03030 	mov	r3, #48	; 0x30
  3014fc:	e3a07078 	mov	r7, #120	; 0x78
  301500:	e3842002 	orr	r2, r4, #2
  301504:	e58d2020 	str	r2, [sp, #32]
  301508:	e59d2038 	ldr	r2, [sp, #56]	; 0x38
  30150c:	e58d1028 	str	r1, [sp, #40]	; 0x28
  301510:	e59f17e4 	ldr	r1, [pc, #2020]	; 301cfc <_vfprintf_r+0x1550>
  301514:	e2822004 	add	r2, r2, #4
  301518:	e5cd3078 	strb	r3, [sp, #120]	; 0x78
  30151c:	e5123004 	ldr	r3, [r2, #-4]
  301520:	e5cd7079 	strb	r7, [sp, #121]	; 0x79
  301524:	e58d2038 	str	r2, [sp, #56]	; 0x38
  301528:	e58d1054 	str	r1, [sp, #84]	; 0x54
  30152c:	e3a02002 	mov	r2, #2
  301530:	eafffee3 	b	3010c4 <_vfprintf_r+0x918>
  301534:	e3570000 	cmp	r7, #0
  301538:	e58d1028 	str	r1, [sp, #40]	; 0x28
  30153c:	e5cd2077 	strb	r2, [sp, #119]	; 0x77
  301540:	0a0002d1 	beq	30208c <_vfprintf_r+0x18e0>
  301544:	e3a03000 	mov	r3, #0
  301548:	e3a02001 	mov	r2, #1
  30154c:	e5cd3077 	strb	r3, [sp, #119]	; 0x77
  301550:	e28d30a0 	add	r3, sp, #160	; 0xa0
  301554:	e58d2024 	str	r2, [sp, #36]	; 0x24
  301558:	e5cd70a0 	strb	r7, [sp, #160]	; 0xa0
  30155c:	e58d4020 	str	r4, [sp, #32]
  301560:	e58d202c 	str	r2, [sp, #44]	; 0x2c
  301564:	e58d3044 	str	r3, [sp, #68]	; 0x44
  301568:	eaffff54 	b	3012c0 <_vfprintf_r+0xb14>
  30156c:	e59d2038 	ldr	r2, [sp, #56]	; 0x38
  301570:	e5923000 	ldr	r3, [r2]
  301574:	e2822004 	add	r2, r2, #4
  301578:	e58d2038 	str	r2, [sp, #56]	; 0x38
  30157c:	e59d2030 	ldr	r2, [sp, #48]	; 0x30
  301580:	e5832000 	str	r2, [r3]
  301584:	eafffcbe 	b	300884 <_vfprintf_r+0xd8>
  301588:	e3570065 	cmp	r7, #101	; 0x65
  30158c:	da000091 	ble	3017d8 <_vfprintf_r+0x102c>
  301590:	e28d004c 	add	r0, sp, #76	; 0x4c
  301594:	e8900003 	ldm	r0, {r0, r1}
  301598:	e3a02000 	mov	r2, #0
  30159c:	e3a03000 	mov	r3, #0
  3015a0:	eb002163 	bl	309b34 <__aeabi_dcmpeq>
  3015a4:	e3500000 	cmp	r0, #0
  3015a8:	0a000108 	beq	3019d0 <_vfprintf_r+0x1224>
  3015ac:	e3a02001 	mov	r2, #1
  3015b0:	e59f3754 	ldr	r3, [pc, #1876]	; 301d0c <_vfprintf_r+0x1560>
  3015b4:	e0844002 	add	r4, r4, r2
  3015b8:	e3540007 	cmp	r4, #7
  3015bc:	e0855002 	add	r5, r5, r2
  3015c0:	e5892004 	str	r2, [r9, #4]
  3015c4:	e5893000 	str	r3, [r9]
  3015c8:	e58d4098 	str	r4, [sp, #152]	; 0x98
  3015cc:	e58d509c 	str	r5, [sp, #156]	; 0x9c
  3015d0:	d2899008 	addle	r9, r9, #8
  3015d4:	ca000269 	bgt	301f80 <_vfprintf_r+0x17d4>
  3015d8:	e59d307c 	ldr	r3, [sp, #124]	; 0x7c
  3015dc:	e59d2048 	ldr	r2, [sp, #72]	; 0x48
  3015e0:	e1530002 	cmp	r3, r2
  3015e4:	ba000002 	blt	3015f4 <_vfprintf_r+0xe48>
  3015e8:	e59d3020 	ldr	r3, [sp, #32]
  3015ec:	e3130001 	tst	r3, #1
  3015f0:	0afffe63 	beq	300f84 <_vfprintf_r+0x7d8>
  3015f4:	e59d3098 	ldr	r3, [sp, #152]	; 0x98
  3015f8:	e59d205c 	ldr	r2, [sp, #92]	; 0x5c
  3015fc:	e2833001 	add	r3, r3, #1
  301600:	e59d1058 	ldr	r1, [sp, #88]	; 0x58
  301604:	e0855002 	add	r5, r5, r2
  301608:	e3530007 	cmp	r3, #7
  30160c:	e8890006 	stm	r9, {r1, r2}
  301610:	e58d509c 	str	r5, [sp, #156]	; 0x9c
  301614:	e58d3098 	str	r3, [sp, #152]	; 0x98
  301618:	d2899008 	addle	r9, r9, #8
  30161c:	ca0002ee 	bgt	3021dc <_vfprintf_r+0x1a30>
  301620:	e59d3048 	ldr	r3, [sp, #72]	; 0x48
  301624:	e2436001 	sub	r6, r3, #1
  301628:	e3560000 	cmp	r6, #0
  30162c:	dafffe54 	ble	300f84 <_vfprintf_r+0x7d8>
  301630:	e3560010 	cmp	r6, #16
  301634:	da0001bb 	ble	301d28 <_vfprintf_r+0x157c>
  301638:	e28d4c05 	add	r4, sp, #1280	; 0x500
  30163c:	e2844008 	add	r4, r4, #8
  301640:	e5343470 	ldr	r3, [r4, #-1136]!	; 0x470
  301644:	e3a07010 	mov	r7, #16
  301648:	e59fb6c0 	ldr	fp, [pc, #1728]	; 301d10 <_vfprintf_r+0x1564>
  30164c:	e2444004 	sub	r4, r4, #4
  301650:	e59da01c 	ldr	sl, [sp, #28]
  301654:	ea000002 	b	301664 <_vfprintf_r+0xeb8>
  301658:	e2466010 	sub	r6, r6, #16
  30165c:	e3560010 	cmp	r6, #16
  301660:	da0001b2 	ble	301d30 <_vfprintf_r+0x1584>
  301664:	e2833001 	add	r3, r3, #1
  301668:	e3530007 	cmp	r3, #7
  30166c:	e2855010 	add	r5, r5, #16
  301670:	e589b000 	str	fp, [r9]
  301674:	e5897004 	str	r7, [r9, #4]
  301678:	e58d3098 	str	r3, [sp, #152]	; 0x98
  30167c:	e58d509c 	str	r5, [sp, #156]	; 0x9c
  301680:	d2899008 	addle	r9, r9, #8
  301684:	dafffff3 	ble	301658 <_vfprintf_r+0xeac>
  301688:	e1a0000a 	mov	r0, sl
  30168c:	e1a01008 	mov	r1, r8
  301690:	e1a02004 	mov	r2, r4
  301694:	eb001496 	bl	3068f4 <__sprint_r>
  301698:	e3500000 	cmp	r0, #0
  30169c:	1afffd25 	bne	300b38 <_vfprintf_r+0x38c>
  3016a0:	e28d3098 	add	r3, sp, #152	; 0x98
  3016a4:	e28d9f42 	add	r9, sp, #264	; 0x108
  3016a8:	e8930028 	ldm	r3, {r3, r5}
  3016ac:	eaffffe9 	b	301658 <_vfprintf_r+0xeac>
  3016b0:	e3520000 	cmp	r2, #0
  3016b4:	1a000085 	bne	3018d0 <_vfprintf_r+0x1124>
  3016b8:	e59d3020 	ldr	r3, [sp, #32]
  3016bc:	e3130001 	tst	r3, #1
  3016c0:	0a000122 	beq	301b50 <_vfprintf_r+0x13a4>
  3016c4:	e3a03030 	mov	r3, #48	; 0x30
  3016c8:	e59d206c 	ldr	r2, [sp, #108]	; 0x6c
  3016cc:	e5cd30c7 	strb	r3, [sp, #199]	; 0xc7
  3016d0:	e59d3068 	ldr	r3, [sp, #104]	; 0x68
  3016d4:	e58d202c 	str	r2, [sp, #44]	; 0x2c
  3016d8:	e58d3044 	str	r3, [sp, #68]	; 0x44
  3016dc:	eafffe94 	b	301134 <_vfprintf_r+0x988>
  3016e0:	e59d3034 	ldr	r3, [sp, #52]	; 0x34
  3016e4:	e59d2024 	ldr	r2, [sp, #36]	; 0x24
  3016e8:	e062a003 	rsb	sl, r2, r3
  3016ec:	e35a0000 	cmp	sl, #0
  3016f0:	dafffdd8 	ble	300e58 <_vfprintf_r+0x6ac>
  3016f4:	e35a0010 	cmp	sl, #16
  3016f8:	d59fb610 	ldrle	fp, [pc, #1552]	; 301d10 <_vfprintf_r+0x1564>
  3016fc:	da000022 	ble	30178c <_vfprintf_r+0xfe0>
  301700:	e59fb608 	ldr	fp, [pc, #1544]	; 301d10 <_vfprintf_r+0x1564>
  301704:	e28d3094 	add	r3, sp, #148	; 0x94
  301708:	e58d703c 	str	r7, [sp, #60]	; 0x3c
  30170c:	e3a06010 	mov	r6, #16
  301710:	e1a0700b 	mov	r7, fp
  301714:	e1a0b00a 	mov	fp, sl
  301718:	e1a0a003 	mov	sl, r3
  30171c:	ea000002 	b	30172c <_vfprintf_r+0xf80>
  301720:	e24bb010 	sub	fp, fp, #16
  301724:	e35b0010 	cmp	fp, #16
  301728:	da000014 	ble	301780 <_vfprintf_r+0xfd4>
  30172c:	e2844001 	add	r4, r4, #1
  301730:	e3540007 	cmp	r4, #7
  301734:	e2855010 	add	r5, r5, #16
  301738:	e5897000 	str	r7, [r9]
  30173c:	e5896004 	str	r6, [r9, #4]
  301740:	e58d4098 	str	r4, [sp, #152]	; 0x98
  301744:	e58d509c 	str	r5, [sp, #156]	; 0x9c
  301748:	d2899008 	addle	r9, r9, #8
  30174c:	dafffff3 	ble	301720 <_vfprintf_r+0xf74>
  301750:	e59d001c 	ldr	r0, [sp, #28]
  301754:	e1a01008 	mov	r1, r8
  301758:	e1a0200a 	mov	r2, sl
  30175c:	eb001464 	bl	3068f4 <__sprint_r>
  301760:	e3500000 	cmp	r0, #0
  301764:	1afffcf3 	bne	300b38 <_vfprintf_r+0x38c>
  301768:	e24bb010 	sub	fp, fp, #16
  30176c:	e28d4098 	add	r4, sp, #152	; 0x98
  301770:	e35b0010 	cmp	fp, #16
  301774:	e28d9f42 	add	r9, sp, #264	; 0x108
  301778:	e8940030 	ldm	r4, {r4, r5}
  30177c:	caffffea 	bgt	30172c <_vfprintf_r+0xf80>
  301780:	e1a0a00b 	mov	sl, fp
  301784:	e1a0b007 	mov	fp, r7
  301788:	e59d703c 	ldr	r7, [sp, #60]	; 0x3c
  30178c:	e2844001 	add	r4, r4, #1
  301790:	e3540007 	cmp	r4, #7
  301794:	e085500a 	add	r5, r5, sl
  301798:	e589b000 	str	fp, [r9]
  30179c:	e589a004 	str	sl, [r9, #4]
  3017a0:	e58d4098 	str	r4, [sp, #152]	; 0x98
  3017a4:	e58d509c 	str	r5, [sp, #156]	; 0x9c
  3017a8:	d2899008 	addle	r9, r9, #8
  3017ac:	dafffda9 	ble	300e58 <_vfprintf_r+0x6ac>
  3017b0:	e28d2094 	add	r2, sp, #148	; 0x94
  3017b4:	e59d001c 	ldr	r0, [sp, #28]
  3017b8:	e1a01008 	mov	r1, r8
  3017bc:	eb00144c 	bl	3068f4 <__sprint_r>
  3017c0:	e3500000 	cmp	r0, #0
  3017c4:	1afffcdb 	bne	300b38 <_vfprintf_r+0x38c>
  3017c8:	e28d4098 	add	r4, sp, #152	; 0x98
  3017cc:	e28d9f42 	add	r9, sp, #264	; 0x108
  3017d0:	e8940030 	ldm	r4, {r4, r5}
  3017d4:	eafffd9f 	b	300e58 <_vfprintf_r+0x6ac>
  3017d8:	e59d3048 	ldr	r3, [sp, #72]	; 0x48
  3017dc:	e3530001 	cmp	r3, #1
  3017e0:	da000106 	ble	301c00 <_vfprintf_r+0x1454>
  3017e4:	e3a03001 	mov	r3, #1
  3017e8:	e59d2044 	ldr	r2, [sp, #68]	; 0x44
  3017ec:	e0844003 	add	r4, r4, r3
  3017f0:	e3540007 	cmp	r4, #7
  3017f4:	e0855003 	add	r5, r5, r3
  3017f8:	e889000c 	stm	r9, {r2, r3}
  3017fc:	e58d4098 	str	r4, [sp, #152]	; 0x98
  301800:	e58d509c 	str	r5, [sp, #156]	; 0x9c
  301804:	d2899008 	addle	r9, r9, #8
  301808:	ca000112 	bgt	301c58 <_vfprintf_r+0x14ac>
  30180c:	e59d305c 	ldr	r3, [sp, #92]	; 0x5c
  301810:	e2844001 	add	r4, r4, #1
  301814:	e59d2058 	ldr	r2, [sp, #88]	; 0x58
  301818:	e3540007 	cmp	r4, #7
  30181c:	e0855003 	add	r5, r5, r3
  301820:	e889000c 	stm	r9, {r2, r3}
  301824:	e58d4098 	str	r4, [sp, #152]	; 0x98
  301828:	e58d509c 	str	r5, [sp, #156]	; 0x9c
  30182c:	d2899008 	addle	r9, r9, #8
  301830:	ca000125 	bgt	301ccc <_vfprintf_r+0x1520>
  301834:	e28d004c 	add	r0, sp, #76	; 0x4c
  301838:	e8900003 	ldm	r0, {r0, r1}
  30183c:	e3a02000 	mov	r2, #0
  301840:	e3a03000 	mov	r3, #0
  301844:	eb0020ba 	bl	309b34 <__aeabi_dcmpeq>
  301848:	e3500000 	cmp	r0, #0
  30184c:	1a0000c3 	bne	301b60 <_vfprintf_r+0x13b4>
  301850:	e59d3048 	ldr	r3, [sp, #72]	; 0x48
  301854:	e59d2044 	ldr	r2, [sp, #68]	; 0x44
  301858:	e2844001 	add	r4, r4, #1
  30185c:	e2433001 	sub	r3, r3, #1
  301860:	e2822001 	add	r2, r2, #1
  301864:	e0855003 	add	r5, r5, r3
  301868:	e3540007 	cmp	r4, #7
  30186c:	e58d4098 	str	r4, [sp, #152]	; 0x98
  301870:	e5892000 	str	r2, [r9]
  301874:	e58d509c 	str	r5, [sp, #156]	; 0x9c
  301878:	e5893004 	str	r3, [r9, #4]
  30187c:	ca000108 	bgt	301ca4 <_vfprintf_r+0x14f8>
  301880:	e2899008 	add	r9, r9, #8
  301884:	e59d2064 	ldr	r2, [sp, #100]	; 0x64
  301888:	e2844001 	add	r4, r4, #1
  30188c:	e0825005 	add	r5, r2, r5
  301890:	e28d3084 	add	r3, sp, #132	; 0x84
  301894:	e3540007 	cmp	r4, #7
  301898:	e58d4098 	str	r4, [sp, #152]	; 0x98
  30189c:	e58d509c 	str	r5, [sp, #156]	; 0x9c
  3018a0:	e5892004 	str	r2, [r9, #4]
  3018a4:	e5893000 	str	r3, [r9]
  3018a8:	dafffdb4 	ble	300f80 <_vfprintf_r+0x7d4>
  3018ac:	e28d2094 	add	r2, sp, #148	; 0x94
  3018b0:	e59d001c 	ldr	r0, [sp, #28]
  3018b4:	e1a01008 	mov	r1, r8
  3018b8:	eb00140d 	bl	3068f4 <__sprint_r>
  3018bc:	e3500000 	cmp	r0, #0
  3018c0:	1afffc9c 	bne	300b38 <_vfprintf_r+0x38c>
  3018c4:	e28d9f42 	add	r9, sp, #264	; 0x108
  3018c8:	e59d509c 	ldr	r5, [sp, #156]	; 0x9c
  3018cc:	eafffdac 	b	300f84 <_vfprintf_r+0x7d8>
  3018d0:	e28d30c8 	add	r3, sp, #200	; 0xc8
  3018d4:	e58d102c 	str	r1, [sp, #44]	; 0x2c
  3018d8:	e58d3044 	str	r3, [sp, #68]	; 0x44
  3018dc:	eafffe14 	b	301134 <_vfprintf_r+0x988>
  3018e0:	e2842001 	add	r2, r4, #1
  3018e4:	e59d1044 	ldr	r1, [sp, #68]	; 0x44
  3018e8:	e3520007 	cmp	r2, #7
  3018ec:	e0835005 	add	r5, r3, r5
  3018f0:	e889000a 	stm	r9, {r1, r3}
  3018f4:	e58d2098 	str	r2, [sp, #152]	; 0x98
  3018f8:	e58d509c 	str	r5, [sp, #156]	; 0x9c
  3018fc:	d2899008 	addle	r9, r9, #8
  301900:	ca0002b9 	bgt	3023ec <_vfprintf_r+0x1c40>
  301904:	e59d0044 	ldr	r0, [sp, #68]	; 0x44
  301908:	e59d105c 	ldr	r1, [sp, #92]	; 0x5c
  30190c:	e2822001 	add	r2, r2, #1
  301910:	e0806003 	add	r6, r0, r3
  301914:	e59d0058 	ldr	r0, [sp, #88]	; 0x58
  301918:	e3520007 	cmp	r2, #7
  30191c:	e0855001 	add	r5, r5, r1
  301920:	e8890003 	stm	r9, {r0, r1}
  301924:	e58d2098 	str	r2, [sp, #152]	; 0x98
  301928:	e58d509c 	str	r5, [sp, #156]	; 0x9c
  30192c:	d2899008 	addle	r9, r9, #8
  301930:	ca000284 	bgt	302348 <_vfprintf_r+0x1b9c>
  301934:	e59d1048 	ldr	r1, [sp, #72]	; 0x48
  301938:	e2822001 	add	r2, r2, #1
  30193c:	e0634001 	rsb	r4, r3, r1
  301940:	e0845005 	add	r5, r4, r5
  301944:	e3520007 	cmp	r2, #7
  301948:	e58d509c 	str	r5, [sp, #156]	; 0x9c
  30194c:	e5894004 	str	r4, [r9, #4]
  301950:	e58d2098 	str	r2, [sp, #152]	; 0x98
  301954:	e5896000 	str	r6, [r9]
  301958:	dafffd88 	ble	300f80 <_vfprintf_r+0x7d4>
  30195c:	e28d2094 	add	r2, sp, #148	; 0x94
  301960:	e59d001c 	ldr	r0, [sp, #28]
  301964:	e1a01008 	mov	r1, r8
  301968:	eb0013e1 	bl	3068f4 <__sprint_r>
  30196c:	e3500000 	cmp	r0, #0
  301970:	1afffc70 	bne	300b38 <_vfprintf_r+0x38c>
  301974:	e59d509c 	ldr	r5, [sp, #156]	; 0x9c
  301978:	e28d9f42 	add	r9, sp, #264	; 0x108
  30197c:	eafffd80 	b	300f84 <_vfprintf_r+0x7d8>
  301980:	e28d2094 	add	r2, sp, #148	; 0x94
  301984:	e59d001c 	ldr	r0, [sp, #28]
  301988:	e1a01008 	mov	r1, r8
  30198c:	eb0013d8 	bl	3068f4 <__sprint_r>
  301990:	e3500000 	cmp	r0, #0
  301994:	1afffc67 	bne	300b38 <_vfprintf_r+0x38c>
  301998:	e28d4098 	add	r4, sp, #152	; 0x98
  30199c:	e28d9f42 	add	r9, sp, #264	; 0x108
  3019a0:	e8940030 	ldm	r4, {r4, r5}
  3019a4:	eafffd1b 	b	300e18 <_vfprintf_r+0x66c>
  3019a8:	e28d2094 	add	r2, sp, #148	; 0x94
  3019ac:	e59d001c 	ldr	r0, [sp, #28]
  3019b0:	e1a01008 	mov	r1, r8
  3019b4:	eb0013ce 	bl	3068f4 <__sprint_r>
  3019b8:	e3500000 	cmp	r0, #0
  3019bc:	1afffc5d 	bne	300b38 <_vfprintf_r+0x38c>
  3019c0:	e28d4098 	add	r4, sp, #152	; 0x98
  3019c4:	e28d9f42 	add	r9, sp, #264	; 0x108
  3019c8:	e8940030 	ldm	r4, {r4, r5}
  3019cc:	eafffd1e 	b	300e4c <_vfprintf_r+0x6a0>
  3019d0:	e59d307c 	ldr	r3, [sp, #124]	; 0x7c
  3019d4:	e3530000 	cmp	r3, #0
  3019d8:	da000171 	ble	301fa4 <_vfprintf_r+0x17f8>
  3019dc:	e59d2048 	ldr	r2, [sp, #72]	; 0x48
  3019e0:	e1530002 	cmp	r3, r2
  3019e4:	baffffbd 	blt	3018e0 <_vfprintf_r+0x1134>
  3019e8:	e2844001 	add	r4, r4, #1
  3019ec:	e59d1044 	ldr	r1, [sp, #68]	; 0x44
  3019f0:	e3540007 	cmp	r4, #7
  3019f4:	e0825005 	add	r5, r2, r5
  3019f8:	e8890006 	stm	r9, {r1, r2}
  3019fc:	e58d4098 	str	r4, [sp, #152]	; 0x98
  301a00:	e58d509c 	str	r5, [sp, #156]	; 0x9c
  301a04:	d2899008 	addle	r9, r9, #8
  301a08:	ca000282 	bgt	302418 <_vfprintf_r+0x1c6c>
  301a0c:	e59d2048 	ldr	r2, [sp, #72]	; 0x48
  301a10:	e0624003 	rsb	r4, r2, r3
  301a14:	e3540000 	cmp	r4, #0
  301a18:	da00014a 	ble	301f48 <_vfprintf_r+0x179c>
  301a1c:	e3540010 	cmp	r4, #16
  301a20:	da000135 	ble	301efc <_vfprintf_r+0x1750>
  301a24:	e28d7c05 	add	r7, sp, #1280	; 0x500
  301a28:	e2877008 	add	r7, r7, #8
  301a2c:	e5373470 	ldr	r3, [r7, #-1136]!	; 0x470
  301a30:	e3a06010 	mov	r6, #16
  301a34:	e59fb2d4 	ldr	fp, [pc, #724]	; 301d10 <_vfprintf_r+0x1564>
  301a38:	e2477004 	sub	r7, r7, #4
  301a3c:	e59da01c 	ldr	sl, [sp, #28]
  301a40:	ea000002 	b	301a50 <_vfprintf_r+0x12a4>
  301a44:	e2444010 	sub	r4, r4, #16
  301a48:	e3540010 	cmp	r4, #16
  301a4c:	da00012c 	ble	301f04 <_vfprintf_r+0x1758>
  301a50:	e2833001 	add	r3, r3, #1
  301a54:	e3530007 	cmp	r3, #7
  301a58:	e2855010 	add	r5, r5, #16
  301a5c:	e589b000 	str	fp, [r9]
  301a60:	e5896004 	str	r6, [r9, #4]
  301a64:	e58d3098 	str	r3, [sp, #152]	; 0x98
  301a68:	e58d509c 	str	r5, [sp, #156]	; 0x9c
  301a6c:	d2899008 	addle	r9, r9, #8
  301a70:	dafffff3 	ble	301a44 <_vfprintf_r+0x1298>
  301a74:	e1a0000a 	mov	r0, sl
  301a78:	e1a01008 	mov	r1, r8
  301a7c:	e1a02007 	mov	r2, r7
  301a80:	eb00139b 	bl	3068f4 <__sprint_r>
  301a84:	e3500000 	cmp	r0, #0
  301a88:	1afffc2a 	bne	300b38 <_vfprintf_r+0x38c>
  301a8c:	e28d3098 	add	r3, sp, #152	; 0x98
  301a90:	e28d9f42 	add	r9, sp, #264	; 0x108
  301a94:	e8930028 	ldm	r3, {r3, r5}
  301a98:	eaffffe9 	b	301a44 <_vfprintf_r+0x1298>
  301a9c:	e28d20c8 	add	r2, sp, #200	; 0xc8
  301aa0:	e1a01002 	mov	r1, r2
  301aa4:	e2032007 	and	r2, r3, #7
  301aa8:	e2822030 	add	r2, r2, #48	; 0x30
  301aac:	e1b031a3 	lsrs	r3, r3, #3
  301ab0:	e5612001 	strb	r2, [r1, #-1]!
  301ab4:	1afffffa 	bne	301aa4 <_vfprintf_r+0x12f8>
  301ab8:	e1a03001 	mov	r3, r1
  301abc:	e58d1044 	str	r1, [sp, #68]	; 0x44
  301ac0:	e59d1020 	ldr	r1, [sp, #32]
  301ac4:	e3110001 	tst	r1, #1
  301ac8:	0a000047 	beq	301bec <_vfprintf_r+0x1440>
  301acc:	e3520030 	cmp	r2, #48	; 0x30
  301ad0:	0a000045 	beq	301bec <_vfprintf_r+0x1440>
  301ad4:	e59d1044 	ldr	r1, [sp, #68]	; 0x44
  301ad8:	e2411001 	sub	r1, r1, #1
  301adc:	e1a0c001 	mov	ip, r1
  301ae0:	e3a02030 	mov	r2, #48	; 0x30
  301ae4:	e58d1044 	str	r1, [sp, #68]	; 0x44
  301ae8:	e28d10c8 	add	r1, sp, #200	; 0xc8
  301aec:	e06c1001 	rsb	r1, ip, r1
  301af0:	e58d102c 	str	r1, [sp, #44]	; 0x2c
  301af4:	e5432001 	strb	r2, [r3, #-1]
  301af8:	eafffd8d 	b	301134 <_vfprintf_r+0x988>
  301afc:	e3530009 	cmp	r3, #9
  301b00:	e28d10c8 	add	r1, sp, #200	; 0xc8
  301b04:	9a000009 	bls	301b30 <_vfprintf_r+0x1384>
  301b08:	e59fc1f8 	ldr	ip, [pc, #504]	; 301d08 <_vfprintf_r+0x155c>
  301b0c:	e08c2c93 	umull	r2, ip, r3, ip
  301b10:	e1a0c1ac 	lsr	ip, ip, #3
  301b14:	e08c210c 	add	r2, ip, ip, lsl #2
  301b18:	e0432082 	sub	r2, r3, r2, lsl #1
  301b1c:	e2822030 	add	r2, r2, #48	; 0x30
  301b20:	e35c0009 	cmp	ip, #9
  301b24:	e1a0300c 	mov	r3, ip
  301b28:	e5612001 	strb	r2, [r1, #-1]!
  301b2c:	8afffff5 	bhi	301b08 <_vfprintf_r+0x135c>
  301b30:	e2833030 	add	r3, r3, #48	; 0x30
  301b34:	e2412001 	sub	r2, r1, #1
  301b38:	e5413001 	strb	r3, [r1, #-1]
  301b3c:	e28d30c8 	add	r3, sp, #200	; 0xc8
  301b40:	e0623003 	rsb	r3, r2, r3
  301b44:	e58d2044 	str	r2, [sp, #68]	; 0x44
  301b48:	e58d302c 	str	r3, [sp, #44]	; 0x2c
  301b4c:	eafffd78 	b	301134 <_vfprintf_r+0x988>
  301b50:	e28d30c8 	add	r3, sp, #200	; 0xc8
  301b54:	e58d202c 	str	r2, [sp, #44]	; 0x2c
  301b58:	e58d3044 	str	r3, [sp, #68]	; 0x44
  301b5c:	eafffd74 	b	301134 <_vfprintf_r+0x988>
  301b60:	e59d3048 	ldr	r3, [sp, #72]	; 0x48
  301b64:	e2437001 	sub	r7, r3, #1
  301b68:	e3570000 	cmp	r7, #0
  301b6c:	daffff44 	ble	301884 <_vfprintf_r+0x10d8>
  301b70:	e3570010 	cmp	r7, #16
  301b74:	d59fb194 	ldrle	fp, [pc, #404]	; 301d10 <_vfprintf_r+0x1564>
  301b78:	da000041 	ble	301c84 <_vfprintf_r+0x14d8>
  301b7c:	e28d6094 	add	r6, sp, #148	; 0x94
  301b80:	e1a03006 	mov	r3, r6
  301b84:	e59fb184 	ldr	fp, [pc, #388]	; 301d10 <_vfprintf_r+0x1564>
  301b88:	e3a0a010 	mov	sl, #16
  301b8c:	e1a0600b 	mov	r6, fp
  301b90:	e1a0b003 	mov	fp, r3
  301b94:	ea000002 	b	301ba4 <_vfprintf_r+0x13f8>
  301b98:	e2477010 	sub	r7, r7, #16
  301b9c:	e3570010 	cmp	r7, #16
  301ba0:	da000036 	ble	301c80 <_vfprintf_r+0x14d4>
  301ba4:	e2844001 	add	r4, r4, #1
  301ba8:	e3540007 	cmp	r4, #7
  301bac:	e2855010 	add	r5, r5, #16
  301bb0:	e8890440 	stm	r9, {r6, sl}
  301bb4:	e58d4098 	str	r4, [sp, #152]	; 0x98
  301bb8:	e58d509c 	str	r5, [sp, #156]	; 0x9c
  301bbc:	d2899008 	addle	r9, r9, #8
  301bc0:	dafffff4 	ble	301b98 <_vfprintf_r+0x13ec>
  301bc4:	e59d001c 	ldr	r0, [sp, #28]
  301bc8:	e1a01008 	mov	r1, r8
  301bcc:	e1a0200b 	mov	r2, fp
  301bd0:	eb001347 	bl	3068f4 <__sprint_r>
  301bd4:	e3500000 	cmp	r0, #0
  301bd8:	1afffbd6 	bne	300b38 <_vfprintf_r+0x38c>
  301bdc:	e28d4098 	add	r4, sp, #152	; 0x98
  301be0:	e28d9f42 	add	r9, sp, #264	; 0x108
  301be4:	e8940030 	ldm	r4, {r4, r5}
  301be8:	eaffffea 	b	301b98 <_vfprintf_r+0x13ec>
  301bec:	e59d2044 	ldr	r2, [sp, #68]	; 0x44
  301bf0:	e28d30c8 	add	r3, sp, #200	; 0xc8
  301bf4:	e0623003 	rsb	r3, r2, r3
  301bf8:	e58d302c 	str	r3, [sp, #44]	; 0x2c
  301bfc:	eafffd4c 	b	301134 <_vfprintf_r+0x988>
  301c00:	e59d3020 	ldr	r3, [sp, #32]
  301c04:	e3130001 	tst	r3, #1
  301c08:	1afffef5 	bne	3017e4 <_vfprintf_r+0x1038>
  301c0c:	e3a03001 	mov	r3, #1
  301c10:	e59d2044 	ldr	r2, [sp, #68]	; 0x44
  301c14:	e0844003 	add	r4, r4, r3
  301c18:	e0855003 	add	r5, r5, r3
  301c1c:	e3540007 	cmp	r4, #7
  301c20:	e58d4098 	str	r4, [sp, #152]	; 0x98
  301c24:	e58d509c 	str	r5, [sp, #156]	; 0x9c
  301c28:	e889000c 	stm	r9, {r2, r3}
  301c2c:	daffff13 	ble	301880 <_vfprintf_r+0x10d4>
  301c30:	e28d2094 	add	r2, sp, #148	; 0x94
  301c34:	e59d001c 	ldr	r0, [sp, #28]
  301c38:	e1a01008 	mov	r1, r8
  301c3c:	eb00132c 	bl	3068f4 <__sprint_r>
  301c40:	e3500000 	cmp	r0, #0
  301c44:	1afffbbb 	bne	300b38 <_vfprintf_r+0x38c>
  301c48:	e28d4098 	add	r4, sp, #152	; 0x98
  301c4c:	e28d9f42 	add	r9, sp, #264	; 0x108
  301c50:	e8940030 	ldm	r4, {r4, r5}
  301c54:	eaffff0a 	b	301884 <_vfprintf_r+0x10d8>
  301c58:	e28d2094 	add	r2, sp, #148	; 0x94
  301c5c:	e59d001c 	ldr	r0, [sp, #28]
  301c60:	e1a01008 	mov	r1, r8
  301c64:	eb001322 	bl	3068f4 <__sprint_r>
  301c68:	e3500000 	cmp	r0, #0
  301c6c:	1afffbb1 	bne	300b38 <_vfprintf_r+0x38c>
  301c70:	e28d4098 	add	r4, sp, #152	; 0x98
  301c74:	e28d9f42 	add	r9, sp, #264	; 0x108
  301c78:	e8940030 	ldm	r4, {r4, r5}
  301c7c:	eafffee2 	b	30180c <_vfprintf_r+0x1060>
  301c80:	e1a0b006 	mov	fp, r6
  301c84:	e2844001 	add	r4, r4, #1
  301c88:	e0855007 	add	r5, r5, r7
  301c8c:	e3540007 	cmp	r4, #7
  301c90:	e58d4098 	str	r4, [sp, #152]	; 0x98
  301c94:	e58d509c 	str	r5, [sp, #156]	; 0x9c
  301c98:	e589b000 	str	fp, [r9]
  301c9c:	e5897004 	str	r7, [r9, #4]
  301ca0:	dafffef6 	ble	301880 <_vfprintf_r+0x10d4>
  301ca4:	e28d2094 	add	r2, sp, #148	; 0x94
  301ca8:	e59d001c 	ldr	r0, [sp, #28]
  301cac:	e1a01008 	mov	r1, r8
  301cb0:	eb00130f 	bl	3068f4 <__sprint_r>
  301cb4:	e3500000 	cmp	r0, #0
  301cb8:	1afffb9e 	bne	300b38 <_vfprintf_r+0x38c>
  301cbc:	e28d4098 	add	r4, sp, #152	; 0x98
  301cc0:	e8940030 	ldm	r4, {r4, r5}
  301cc4:	e28d9f42 	add	r9, sp, #264	; 0x108
  301cc8:	eafffeed 	b	301884 <_vfprintf_r+0x10d8>
  301ccc:	e28d2094 	add	r2, sp, #148	; 0x94
  301cd0:	e59d001c 	ldr	r0, [sp, #28]
  301cd4:	e1a01008 	mov	r1, r8
  301cd8:	eb001305 	bl	3068f4 <__sprint_r>
  301cdc:	e3500000 	cmp	r0, #0
  301ce0:	1afffb94 	bne	300b38 <_vfprintf_r+0x38c>
  301ce4:	e28d4098 	add	r4, sp, #152	; 0x98
  301ce8:	e28d9f42 	add	r9, sp, #264	; 0x108
  301cec:	e8940030 	ldm	r4, {r4, r5}
  301cf0:	eafffecf 	b	301834 <_vfprintf_r+0x1088>
  301cf4:	0030a000 	eorseq	sl, r0, r0
  301cf8:	0030a284 	eorseq	sl, r0, r4, lsl #5
  301cfc:	0030a298 	mlaseq	r0, r8, r2, sl
  301d00:	0030a274 	eorseq	sl, r0, r4, ror r2
  301d04:	0030a278 	eorseq	sl, r0, r8, ror r2
  301d08:	cccccccd 	stclgt	12, cr12, [ip], {205}	; 0xcd
  301d0c:	0030a2b4 	ldrhteq	sl, [r0], -r4
  301d10:	0030a010 	eorseq	sl, r0, r0, lsl r0
  301d14:	0030a27c 	eorseq	sl, r0, ip, ror r2
  301d18:	0030a280 	eorseq	sl, r0, r0, lsl #5
  301d1c:	0030a000 	eorseq	sl, r0, r0
  301d20:	0030a2ac 	eorseq	sl, r0, ip, lsr #5
  301d24:	66666667 	strbtvs	r6, [r6], -r7, ror #12
  301d28:	e59d3098 	ldr	r3, [sp, #152]	; 0x98
  301d2c:	e51fb024 	ldr	fp, [pc, #-36]	; 301d10 <_vfprintf_r+0x1564>
  301d30:	e2833001 	add	r3, r3, #1
  301d34:	e0855006 	add	r5, r5, r6
  301d38:	e3530007 	cmp	r3, #7
  301d3c:	e58d3098 	str	r3, [sp, #152]	; 0x98
  301d40:	e58d509c 	str	r5, [sp, #156]	; 0x9c
  301d44:	e589b000 	str	fp, [r9]
  301d48:	e5896004 	str	r6, [r9, #4]
  301d4c:	dafffc8b 	ble	300f80 <_vfprintf_r+0x7d4>
  301d50:	eaffff01 	b	30195c <_vfprintf_r+0x11b0>
  301d54:	eb0011b5 	bl	306430 <__fpclassifyd>
  301d58:	e3500000 	cmp	r0, #0
  301d5c:	0a0000d4 	beq	3020b4 <_vfprintf_r+0x1908>
  301d60:	e3c73020 	bic	r3, r7, #32
  301d64:	e37a0001 	cmn	sl, #1
  301d68:	e58d303c 	str	r3, [sp, #60]	; 0x3c
  301d6c:	03a0b006 	moveq	fp, #6
  301d70:	0a0000f6 	beq	302150 <_vfprintf_r+0x19a4>
  301d74:	e3530047 	cmp	r3, #71	; 0x47
  301d78:	035a0000 	cmpeq	sl, #0
  301d7c:	1a0000f3 	bne	302150 <_vfprintf_r+0x19a4>
  301d80:	e3a02047 	mov	r2, #71	; 0x47
  301d84:	e59d3050 	ldr	r3, [sp, #80]	; 0x50
  301d88:	e58d203c 	str	r2, [sp, #60]	; 0x3c
  301d8c:	e3530000 	cmp	r3, #0
  301d90:	e3842c01 	orr	r2, r4, #256	; 0x100
  301d94:	e3a0b001 	mov	fp, #1
  301d98:	e58d2020 	str	r2, [sp, #32]
  301d9c:	ba0001e2 	blt	30252c <_vfprintf_r+0x1d80>
  301da0:	e58d302c 	str	r3, [sp, #44]	; 0x2c
  301da4:	e59d304c 	ldr	r3, [sp, #76]	; 0x4c
  301da8:	e58d3024 	str	r3, [sp, #36]	; 0x24
  301dac:	e3a03000 	mov	r3, #0
  301db0:	e58d3040 	str	r3, [sp, #64]	; 0x40
  301db4:	e3a00002 	mov	r0, #2
  301db8:	e28da088 	add	sl, sp, #136	; 0x88
  301dbc:	e24a100c 	sub	r1, sl, #12
  301dc0:	e58d1008 	str	r1, [sp, #8]
  301dc4:	e28d6098 	add	r6, sp, #152	; 0x98
  301dc8:	e24a1008 	sub	r1, sl, #8
  301dcc:	e58d100c 	str	r1, [sp, #12]
  301dd0:	e246100c 	sub	r1, r6, #12
  301dd4:	e59d302c 	ldr	r3, [sp, #44]	; 0x2c
  301dd8:	e58d0000 	str	r0, [sp]
  301ddc:	e59d2024 	ldr	r2, [sp, #36]	; 0x24
  301de0:	e58db004 	str	fp, [sp, #4]
  301de4:	e58d1010 	str	r1, [sp, #16]
  301de8:	e59d001c 	ldr	r0, [sp, #28]
  301dec:	eb0002c5 	bl	302908 <_dtoa_r>
  301df0:	e59d303c 	ldr	r3, [sp, #60]	; 0x3c
  301df4:	e3530047 	cmp	r3, #71	; 0x47
  301df8:	e58d0044 	str	r0, [sp, #68]	; 0x44
  301dfc:	1a0001f0 	bne	3025c4 <_vfprintf_r+0x1e18>
  301e00:	e3140001 	tst	r4, #1
  301e04:	0a0001d0 	beq	30254c <_vfprintf_r+0x1da0>
  301e08:	e59d3044 	ldr	r3, [sp, #68]	; 0x44
  301e0c:	e083500b 	add	r5, r3, fp
  301e10:	e3a03000 	mov	r3, #0
  301e14:	e59d0024 	ldr	r0, [sp, #36]	; 0x24
  301e18:	e59d102c 	ldr	r1, [sp, #44]	; 0x2c
  301e1c:	e3a02000 	mov	r2, #0
  301e20:	eb001f43 	bl	309b34 <__aeabi_dcmpeq>
  301e24:	e3500000 	cmp	r0, #0
  301e28:	11a03005 	movne	r3, r5
  301e2c:	1a000009 	bne	301e58 <_vfprintf_r+0x16ac>
  301e30:	e59d308c 	ldr	r3, [sp, #140]	; 0x8c
  301e34:	e1550003 	cmp	r5, r3
  301e38:	9a000006 	bls	301e58 <_vfprintf_r+0x16ac>
  301e3c:	e3a01030 	mov	r1, #48	; 0x30
  301e40:	e2832001 	add	r2, r3, #1
  301e44:	e58d208c 	str	r2, [sp, #140]	; 0x8c
  301e48:	e5c31000 	strb	r1, [r3]
  301e4c:	e59d308c 	ldr	r3, [sp, #140]	; 0x8c
  301e50:	e1550003 	cmp	r5, r3
  301e54:	8afffff9 	bhi	301e40 <_vfprintf_r+0x1694>
  301e58:	e59d203c 	ldr	r2, [sp, #60]	; 0x3c
  301e5c:	e3520047 	cmp	r2, #71	; 0x47
  301e60:	e59d2044 	ldr	r2, [sp, #68]	; 0x44
  301e64:	e0623003 	rsb	r3, r2, r3
  301e68:	e58d3048 	str	r3, [sp, #72]	; 0x48
  301e6c:	e59d307c 	ldr	r3, [sp, #124]	; 0x7c
  301e70:	1a00014b 	bne	3023a4 <_vfprintf_r+0x1bf8>
  301e74:	e3730003 	cmn	r3, #3
  301e78:	a15b0003 	cmpge	fp, r3
  301e7c:	b2477002 	sublt	r7, r7, #2
  301e80:	ba000176 	blt	302460 <_vfprintf_r+0x1cb4>
  301e84:	e3a07067 	mov	r7, #103	; 0x67
  301e88:	e58d302c 	str	r3, [sp, #44]	; 0x2c
  301e8c:	e59d3048 	ldr	r3, [sp, #72]	; 0x48
  301e90:	e59d202c 	ldr	r2, [sp, #44]	; 0x2c
  301e94:	e1530002 	cmp	r3, r2
  301e98:	ca000137 	bgt	30237c <_vfprintf_r+0x1bd0>
  301e9c:	e3140001 	tst	r4, #1
  301ea0:	01a03002 	moveq	r3, r2
  301ea4:	0a00013b 	beq	302398 <_vfprintf_r+0x1bec>
  301ea8:	e59d302c 	ldr	r3, [sp, #44]	; 0x2c
  301eac:	e2833001 	add	r3, r3, #1
  301eb0:	e58d302c 	str	r3, [sp, #44]	; 0x2c
  301eb4:	e1c33fc3 	bic	r3, r3, r3, asr #31
  301eb8:	e58d3024 	str	r3, [sp, #36]	; 0x24
  301ebc:	e59d3040 	ldr	r3, [sp, #64]	; 0x40
  301ec0:	e3530000 	cmp	r3, #0
  301ec4:	0a00012a 	beq	302374 <_vfprintf_r+0x1bc8>
  301ec8:	e3a0302d 	mov	r3, #45	; 0x2d
  301ecc:	e5cd3077 	strb	r3, [sp, #119]	; 0x77
  301ed0:	e3a03000 	mov	r3, #0
  301ed4:	e58d3040 	str	r3, [sp, #64]	; 0x40
  301ed8:	eafffb73 	b	300cac <_vfprintf_r+0x500>
  301edc:	e3c55007 	bic	r5, r5, #7
  301ee0:	e5953000 	ldr	r3, [r5]
  301ee4:	e58d304c 	str	r3, [sp, #76]	; 0x4c
  301ee8:	e5953004 	ldr	r3, [r5, #4]
  301eec:	e58d3050 	str	r3, [sp, #80]	; 0x50
  301ef0:	e2853008 	add	r3, r5, #8
  301ef4:	e58d3038 	str	r3, [sp, #56]	; 0x38
  301ef8:	eafffd4e 	b	301438 <_vfprintf_r+0xc8c>
  301efc:	e59d3098 	ldr	r3, [sp, #152]	; 0x98
  301f00:	e51fb1f8 	ldr	fp, [pc, #-504]	; 301d10 <_vfprintf_r+0x1564>
  301f04:	e2833001 	add	r3, r3, #1
  301f08:	e3530007 	cmp	r3, #7
  301f0c:	e0855004 	add	r5, r5, r4
  301f10:	e589b000 	str	fp, [r9]
  301f14:	e5894004 	str	r4, [r9, #4]
  301f18:	e58d3098 	str	r3, [sp, #152]	; 0x98
  301f1c:	e58d509c 	str	r5, [sp, #156]	; 0x9c
  301f20:	d2899008 	addle	r9, r9, #8
  301f24:	da000007 	ble	301f48 <_vfprintf_r+0x179c>
  301f28:	e28d2094 	add	r2, sp, #148	; 0x94
  301f2c:	e59d001c 	ldr	r0, [sp, #28]
  301f30:	e1a01008 	mov	r1, r8
  301f34:	eb00126e 	bl	3068f4 <__sprint_r>
  301f38:	e3500000 	cmp	r0, #0
  301f3c:	1afffafd 	bne	300b38 <_vfprintf_r+0x38c>
  301f40:	e59d509c 	ldr	r5, [sp, #156]	; 0x9c
  301f44:	e28d9f42 	add	r9, sp, #264	; 0x108
  301f48:	e59d3020 	ldr	r3, [sp, #32]
  301f4c:	e3130001 	tst	r3, #1
  301f50:	0afffc0b 	beq	300f84 <_vfprintf_r+0x7d8>
  301f54:	e59d3098 	ldr	r3, [sp, #152]	; 0x98
  301f58:	e59d205c 	ldr	r2, [sp, #92]	; 0x5c
  301f5c:	e2833001 	add	r3, r3, #1
  301f60:	e59d1058 	ldr	r1, [sp, #88]	; 0x58
  301f64:	e0855002 	add	r5, r5, r2
  301f68:	e3530007 	cmp	r3, #7
  301f6c:	e58d509c 	str	r5, [sp, #156]	; 0x9c
  301f70:	e8890006 	stm	r9, {r1, r2}
  301f74:	e58d3098 	str	r3, [sp, #152]	; 0x98
  301f78:	dafffc00 	ble	300f80 <_vfprintf_r+0x7d4>
  301f7c:	eafffe76 	b	30195c <_vfprintf_r+0x11b0>
  301f80:	e28d2094 	add	r2, sp, #148	; 0x94
  301f84:	e59d001c 	ldr	r0, [sp, #28]
  301f88:	e1a01008 	mov	r1, r8
  301f8c:	eb001258 	bl	3068f4 <__sprint_r>
  301f90:	e3500000 	cmp	r0, #0
  301f94:	1afffae7 	bne	300b38 <_vfprintf_r+0x38c>
  301f98:	e28d9f42 	add	r9, sp, #264	; 0x108
  301f9c:	e59d509c 	ldr	r5, [sp, #156]	; 0x9c
  301fa0:	eafffd8c 	b	3015d8 <_vfprintf_r+0xe2c>
  301fa4:	e3a01001 	mov	r1, #1
  301fa8:	e51f22a4 	ldr	r2, [pc, #-676]	; 301d0c <_vfprintf_r+0x1560>
  301fac:	e0844001 	add	r4, r4, r1
  301fb0:	e3540007 	cmp	r4, #7
  301fb4:	e0855001 	add	r5, r5, r1
  301fb8:	e5891004 	str	r1, [r9, #4]
  301fbc:	e5892000 	str	r2, [r9]
  301fc0:	e58d4098 	str	r4, [sp, #152]	; 0x98
  301fc4:	e58d509c 	str	r5, [sp, #156]	; 0x9c
  301fc8:	d2899008 	addle	r9, r9, #8
  301fcc:	ca00004a 	bgt	3020fc <_vfprintf_r+0x1950>
  301fd0:	e59d2048 	ldr	r2, [sp, #72]	; 0x48
  301fd4:	e1932002 	orrs	r2, r3, r2
  301fd8:	0a000043 	beq	3020ec <_vfprintf_r+0x1940>
  301fdc:	e59d2098 	ldr	r2, [sp, #152]	; 0x98
  301fe0:	e59d105c 	ldr	r1, [sp, #92]	; 0x5c
  301fe4:	e2822001 	add	r2, r2, #1
  301fe8:	e59d0058 	ldr	r0, [sp, #88]	; 0x58
  301fec:	e0855001 	add	r5, r5, r1
  301ff0:	e3520007 	cmp	r2, #7
  301ff4:	e8890003 	stm	r9, {r0, r1}
  301ff8:	e58d509c 	str	r5, [sp, #156]	; 0x9c
  301ffc:	e58d2098 	str	r2, [sp, #152]	; 0x98
  302000:	d2899008 	addle	r9, r9, #8
  302004:	ca000046 	bgt	302124 <_vfprintf_r+0x1978>
  302008:	e2634000 	rsb	r4, r3, #0
  30200c:	e3540000 	cmp	r4, #0
  302010:	da00008c 	ble	302248 <_vfprintf_r+0x1a9c>
  302014:	e3540010 	cmp	r4, #16
  302018:	d51fb310 	ldrle	fp, [pc, #-784]	; 301d10 <_vfprintf_r+0x1564>
  30201c:	da000077 	ble	302200 <_vfprintf_r+0x1a54>
  302020:	e3a06010 	mov	r6, #16
  302024:	e51fb31c 	ldr	fp, [pc, #-796]	; 301d10 <_vfprintf_r+0x1564>
  302028:	e28d7094 	add	r7, sp, #148	; 0x94
  30202c:	e59da01c 	ldr	sl, [sp, #28]
  302030:	ea000002 	b	302040 <_vfprintf_r+0x1894>
  302034:	e2444010 	sub	r4, r4, #16
  302038:	e3540010 	cmp	r4, #16
  30203c:	da00006f 	ble	302200 <_vfprintf_r+0x1a54>
  302040:	e2822001 	add	r2, r2, #1
  302044:	e3520007 	cmp	r2, #7
  302048:	e2855010 	add	r5, r5, #16
  30204c:	e589b000 	str	fp, [r9]
  302050:	e5896004 	str	r6, [r9, #4]
  302054:	e58d2098 	str	r2, [sp, #152]	; 0x98
  302058:	e58d509c 	str	r5, [sp, #156]	; 0x9c
  30205c:	d2899008 	addle	r9, r9, #8
  302060:	dafffff3 	ble	302034 <_vfprintf_r+0x1888>
  302064:	e1a0000a 	mov	r0, sl
  302068:	e1a01008 	mov	r1, r8
  30206c:	e1a02007 	mov	r2, r7
  302070:	eb00121f 	bl	3068f4 <__sprint_r>
  302074:	e3500000 	cmp	r0, #0
  302078:	1afffaae 	bne	300b38 <_vfprintf_r+0x38c>
  30207c:	e28d2098 	add	r2, sp, #152	; 0x98
  302080:	e28d9f42 	add	r9, sp, #264	; 0x108
  302084:	e8920024 	ldm	r2, {r2, r5}
  302088:	eaffffe9 	b	302034 <_vfprintf_r+0x1888>
  30208c:	e59d309c 	ldr	r3, [sp, #156]	; 0x9c
  302090:	e3530000 	cmp	r3, #0
  302094:	e59da01c 	ldr	sl, [sp, #28]
  302098:	e1a0b008 	mov	fp, r8
  30209c:	0afffaa6 	beq	300b3c <_vfprintf_r+0x390>
  3020a0:	e1a0000a 	mov	r0, sl
  3020a4:	e28d2094 	add	r2, sp, #148	; 0x94
  3020a8:	e1a01008 	mov	r1, r8
  3020ac:	eb001210 	bl	3068f4 <__sprint_r>
  3020b0:	eafffaa1 	b	300b3c <_vfprintf_r+0x390>
  3020b4:	e3a03003 	mov	r3, #3
  3020b8:	e1a01003 	mov	r1, r3
  3020bc:	e58d3024 	str	r3, [sp, #36]	; 0x24
  3020c0:	e51f33b4 	ldr	r3, [pc, #-948]	; 301d14 <_vfprintf_r+0x1568>
  3020c4:	e3570047 	cmp	r7, #71	; 0x47
  3020c8:	e51f23b8 	ldr	r2, [pc, #-952]	; 301d18 <_vfprintf_r+0x156c>
  3020cc:	d1a02003 	movle	r2, r3
  3020d0:	e3c4c080 	bic	ip, r4, #128	; 0x80
  3020d4:	e58d0040 	str	r0, [sp, #64]	; 0x40
  3020d8:	e58dc020 	str	ip, [sp, #32]
  3020dc:	e58d102c 	str	r1, [sp, #44]	; 0x2c
  3020e0:	e58d2044 	str	r2, [sp, #68]	; 0x44
  3020e4:	e5dd0077 	ldrb	r0, [sp, #119]	; 0x77
  3020e8:	eafffaed 	b	300ca4 <_vfprintf_r+0x4f8>
  3020ec:	e59d2020 	ldr	r2, [sp, #32]
  3020f0:	e3120001 	tst	r2, #1
  3020f4:	0afffba2 	beq	300f84 <_vfprintf_r+0x7d8>
  3020f8:	eaffffb7 	b	301fdc <_vfprintf_r+0x1830>
  3020fc:	e28d2094 	add	r2, sp, #148	; 0x94
  302100:	e59d001c 	ldr	r0, [sp, #28]
  302104:	e1a01008 	mov	r1, r8
  302108:	eb0011f9 	bl	3068f4 <__sprint_r>
  30210c:	e3500000 	cmp	r0, #0
  302110:	1afffa88 	bne	300b38 <_vfprintf_r+0x38c>
  302114:	e28d9f42 	add	r9, sp, #264	; 0x108
  302118:	e59d307c 	ldr	r3, [sp, #124]	; 0x7c
  30211c:	e59d509c 	ldr	r5, [sp, #156]	; 0x9c
  302120:	eaffffaa 	b	301fd0 <_vfprintf_r+0x1824>
  302124:	e28d2094 	add	r2, sp, #148	; 0x94
  302128:	e59d001c 	ldr	r0, [sp, #28]
  30212c:	e1a01008 	mov	r1, r8
  302130:	eb0011ef 	bl	3068f4 <__sprint_r>
  302134:	e3500000 	cmp	r0, #0
  302138:	1afffa7e 	bne	300b38 <_vfprintf_r+0x38c>
  30213c:	e28d2098 	add	r2, sp, #152	; 0x98
  302140:	e28d9f42 	add	r9, sp, #264	; 0x108
  302144:	e59d307c 	ldr	r3, [sp, #124]	; 0x7c
  302148:	e8920024 	ldm	r2, {r2, r5}
  30214c:	eaffffad 	b	302008 <_vfprintf_r+0x185c>
  302150:	e59d3050 	ldr	r3, [sp, #80]	; 0x50
  302154:	e3842c01 	orr	r2, r4, #256	; 0x100
  302158:	e3530000 	cmp	r3, #0
  30215c:	e58d2020 	str	r2, [sp, #32]
  302160:	ba0000f1 	blt	30252c <_vfprintf_r+0x1d80>
  302164:	e58d302c 	str	r3, [sp, #44]	; 0x2c
  302168:	e59d304c 	ldr	r3, [sp, #76]	; 0x4c
  30216c:	e58d3024 	str	r3, [sp, #36]	; 0x24
  302170:	e3a03000 	mov	r3, #0
  302174:	e58d3040 	str	r3, [sp, #64]	; 0x40
  302178:	e59d303c 	ldr	r3, [sp, #60]	; 0x3c
  30217c:	e3530046 	cmp	r3, #70	; 0x46
  302180:	0a00004b 	beq	3022b4 <_vfprintf_r+0x1b08>
  302184:	e3530045 	cmp	r3, #69	; 0x45
  302188:	1affff09 	bne	301db4 <_vfprintf_r+0x1608>
  30218c:	e3a0e002 	mov	lr, #2
  302190:	e28da088 	add	sl, sp, #136	; 0x88
  302194:	e24a000c 	sub	r0, sl, #12
  302198:	e28d6098 	add	r6, sp, #152	; 0x98
  30219c:	e24a1008 	sub	r1, sl, #8
  3021a0:	e58d0008 	str	r0, [sp, #8]
  3021a4:	e28b5001 	add	r5, fp, #1
  3021a8:	e246000c 	sub	r0, r6, #12
  3021ac:	e58d0010 	str	r0, [sp, #16]
  3021b0:	e59d2024 	ldr	r2, [sp, #36]	; 0x24
  3021b4:	e59d302c 	ldr	r3, [sp, #44]	; 0x2c
  3021b8:	e58d100c 	str	r1, [sp, #12]
  3021bc:	e58de000 	str	lr, [sp]
  3021c0:	e58d5004 	str	r5, [sp, #4]
  3021c4:	e59d001c 	ldr	r0, [sp, #28]
  3021c8:	eb0001ce 	bl	302908 <_dtoa_r>
  3021cc:	e58d0044 	str	r0, [sp, #68]	; 0x44
  3021d0:	e59d3044 	ldr	r3, [sp, #68]	; 0x44
  3021d4:	e0835005 	add	r5, r3, r5
  3021d8:	eaffff0c 	b	301e10 <_vfprintf_r+0x1664>
  3021dc:	e28d2094 	add	r2, sp, #148	; 0x94
  3021e0:	e59d001c 	ldr	r0, [sp, #28]
  3021e4:	e1a01008 	mov	r1, r8
  3021e8:	eb0011c1 	bl	3068f4 <__sprint_r>
  3021ec:	e3500000 	cmp	r0, #0
  3021f0:	1afffa50 	bne	300b38 <_vfprintf_r+0x38c>
  3021f4:	e28d9f42 	add	r9, sp, #264	; 0x108
  3021f8:	e59d509c 	ldr	r5, [sp, #156]	; 0x9c
  3021fc:	eafffd07 	b	301620 <_vfprintf_r+0xe74>
  302200:	e2822001 	add	r2, r2, #1
  302204:	e3520007 	cmp	r2, #7
  302208:	e0855004 	add	r5, r5, r4
  30220c:	e589b000 	str	fp, [r9]
  302210:	e5894004 	str	r4, [r9, #4]
  302214:	e58d2098 	str	r2, [sp, #152]	; 0x98
  302218:	e58d509c 	str	r5, [sp, #156]	; 0x9c
  30221c:	d2899008 	addle	r9, r9, #8
  302220:	da000008 	ble	302248 <_vfprintf_r+0x1a9c>
  302224:	e28d2094 	add	r2, sp, #148	; 0x94
  302228:	e59d001c 	ldr	r0, [sp, #28]
  30222c:	e1a01008 	mov	r1, r8
  302230:	eb0011af 	bl	3068f4 <__sprint_r>
  302234:	e3500000 	cmp	r0, #0
  302238:	1afffa3e 	bne	300b38 <_vfprintf_r+0x38c>
  30223c:	e28d2098 	add	r2, sp, #152	; 0x98
  302240:	e8920024 	ldm	r2, {r2, r5}
  302244:	e28d9f42 	add	r9, sp, #264	; 0x108
  302248:	e59d3048 	ldr	r3, [sp, #72]	; 0x48
  30224c:	e2822001 	add	r2, r2, #1
  302250:	e3520007 	cmp	r2, #7
  302254:	e0835005 	add	r5, r3, r5
  302258:	e58d2098 	str	r2, [sp, #152]	; 0x98
  30225c:	eafffb43 	b	300f70 <_vfprintf_r+0x7c4>
  302260:	eb001160 	bl	3067e8 <strlen>
  302264:	e1a03000 	mov	r3, r0
  302268:	eafffa86 	b	300c88 <_vfprintf_r+0x4dc>
  30226c:	e59d109c 	ldr	r1, [sp, #156]	; 0x9c
  302270:	e59d2098 	ldr	r2, [sp, #152]	; 0x98
  302274:	e51fa560 	ldr	sl, [pc, #-1376]	; 301d1c <_vfprintf_r+0x1570>
  302278:	eafffac6 	b	300d98 <_vfprintf_r+0x5ec>
  30227c:	e59d2098 	ldr	r2, [sp, #152]	; 0x98
  302280:	e51fa56c 	ldr	sl, [pc, #-1388]	; 301d1c <_vfprintf_r+0x1570>
  302284:	eafffb68 	b	30102c <_vfprintf_r+0x880>
  302288:	e35a0006 	cmp	sl, #6
  30228c:	e1a0300a 	mov	r3, sl
  302290:	23a03006 	movcs	r3, #6
  302294:	e58d302c 	str	r3, [sp, #44]	; 0x2c
  302298:	e1c33fc3 	bic	r3, r3, r3, asr #31
  30229c:	e58d3024 	str	r3, [sp, #36]	; 0x24
  3022a0:	e51f3588 	ldr	r3, [pc, #-1416]	; 301d20 <_vfprintf_r+0x1574>
  3022a4:	e58d4020 	str	r4, [sp, #32]
  3022a8:	e58d5038 	str	r5, [sp, #56]	; 0x38
  3022ac:	e58d3044 	str	r3, [sp, #68]	; 0x44
  3022b0:	eafffc02 	b	3012c0 <_vfprintf_r+0xb14>
  3022b4:	e3a05003 	mov	r5, #3
  3022b8:	e28da088 	add	sl, sp, #136	; 0x88
  3022bc:	e28d6098 	add	r6, sp, #152	; 0x98
  3022c0:	e24ae00c 	sub	lr, sl, #12
  3022c4:	e246100c 	sub	r1, r6, #12
  3022c8:	e24a0008 	sub	r0, sl, #8
  3022cc:	e59d2024 	ldr	r2, [sp, #36]	; 0x24
  3022d0:	e59d302c 	ldr	r3, [sp, #44]	; 0x2c
  3022d4:	e98d4800 	stmib	sp, {fp, lr}
  3022d8:	e58d000c 	str	r0, [sp, #12]
  3022dc:	e58d1010 	str	r1, [sp, #16]
  3022e0:	e58d5000 	str	r5, [sp]
  3022e4:	e59d001c 	ldr	r0, [sp, #28]
  3022e8:	eb000186 	bl	302908 <_dtoa_r>
  3022ec:	e1a05000 	mov	r5, r0
  3022f0:	e5d5c000 	ldrb	ip, [r5]
  3022f4:	e24ce030 	sub	lr, ip, #48	; 0x30
  3022f8:	e27ec000 	rsbs	ip, lr, #0
  3022fc:	e0acc00e 	adc	ip, ip, lr
  302300:	e58d0044 	str	r0, [sp, #68]	; 0x44
  302304:	e3a03000 	mov	r3, #0
  302308:	e59d0024 	ldr	r0, [sp, #36]	; 0x24
  30230c:	e59d102c 	ldr	r1, [sp, #44]	; 0x2c
  302310:	e3a02000 	mov	r2, #0
  302314:	e58dc048 	str	ip, [sp, #72]	; 0x48
  302318:	eb001e05 	bl	309b34 <__aeabi_dcmpeq>
  30231c:	e3500000 	cmp	r0, #0
  302320:	e085500b 	add	r5, r5, fp
  302324:	e3a03001 	mov	r3, #1
  302328:	e59dc048 	ldr	ip, [sp, #72]	; 0x48
  30232c:	13a03000 	movne	r3, #0
  302330:	e11c0003 	tst	ip, r3
  302334:	059d307c 	ldreq	r3, [sp, #124]	; 0x7c
  302338:	126b3001 	rsbne	r3, fp, #1
  30233c:	158d307c 	strne	r3, [sp, #124]	; 0x7c
  302340:	e0855003 	add	r5, r5, r3
  302344:	eafffeb1 	b	301e10 <_vfprintf_r+0x1664>
  302348:	e28d2094 	add	r2, sp, #148	; 0x94
  30234c:	e59d001c 	ldr	r0, [sp, #28]
  302350:	e1a01008 	mov	r1, r8
  302354:	eb001166 	bl	3068f4 <__sprint_r>
  302358:	e3500000 	cmp	r0, #0
  30235c:	1afff9f5 	bne	300b38 <_vfprintf_r+0x38c>
  302360:	e28d2098 	add	r2, sp, #152	; 0x98
  302364:	e28d9f42 	add	r9, sp, #264	; 0x108
  302368:	e59d307c 	ldr	r3, [sp, #124]	; 0x7c
  30236c:	e8920024 	ldm	r2, {r2, r5}
  302370:	eafffd6f 	b	301934 <_vfprintf_r+0x1188>
  302374:	e5dd0077 	ldrb	r0, [sp, #119]	; 0x77
  302378:	eafffa49 	b	300ca4 <_vfprintf_r+0x4f8>
  30237c:	e59d302c 	ldr	r3, [sp, #44]	; 0x2c
  302380:	e3530000 	cmp	r3, #0
  302384:	c3a03001 	movgt	r3, #1
  302388:	e59d2048 	ldr	r2, [sp, #72]	; 0x48
  30238c:	d2633002 	rsble	r3, r3, #2
  302390:	e0833002 	add	r3, r3, r2
  302394:	e58d302c 	str	r3, [sp, #44]	; 0x2c
  302398:	e1c33fc3 	bic	r3, r3, r3, asr #31
  30239c:	e58d3024 	str	r3, [sp, #36]	; 0x24
  3023a0:	eafffec5 	b	301ebc <_vfprintf_r+0x1710>
  3023a4:	e3570065 	cmp	r7, #101	; 0x65
  3023a8:	da00002c 	ble	302460 <_vfprintf_r+0x1cb4>
  3023ac:	e3570066 	cmp	r7, #102	; 0x66
  3023b0:	e58d302c 	str	r3, [sp, #44]	; 0x2c
  3023b4:	1afffeb4 	bne	301e8c <_vfprintf_r+0x16e0>
  3023b8:	e3530000 	cmp	r3, #0
  3023bc:	da000072 	ble	30258c <_vfprintf_r+0x1de0>
  3023c0:	e35b0000 	cmp	fp, #0
  3023c4:	1a000001 	bne	3023d0 <_vfprintf_r+0x1c24>
  3023c8:	e3140001 	tst	r4, #1
  3023cc:	0afffff1 	beq	302398 <_vfprintf_r+0x1bec>
  3023d0:	e59d302c 	ldr	r3, [sp, #44]	; 0x2c
  3023d4:	e28bb001 	add	fp, fp, #1
  3023d8:	e083300b 	add	r3, r3, fp
  3023dc:	e58d302c 	str	r3, [sp, #44]	; 0x2c
  3023e0:	e1c33fc3 	bic	r3, r3, r3, asr #31
  3023e4:	e58d3024 	str	r3, [sp, #36]	; 0x24
  3023e8:	eafffeb3 	b	301ebc <_vfprintf_r+0x1710>
  3023ec:	e28d2094 	add	r2, sp, #148	; 0x94
  3023f0:	e59d001c 	ldr	r0, [sp, #28]
  3023f4:	e1a01008 	mov	r1, r8
  3023f8:	eb00113d 	bl	3068f4 <__sprint_r>
  3023fc:	e3500000 	cmp	r0, #0
  302400:	1afff9cc 	bne	300b38 <_vfprintf_r+0x38c>
  302404:	e28d2098 	add	r2, sp, #152	; 0x98
  302408:	e28d9f42 	add	r9, sp, #264	; 0x108
  30240c:	e59d307c 	ldr	r3, [sp, #124]	; 0x7c
  302410:	e8920024 	ldm	r2, {r2, r5}
  302414:	eafffd3a 	b	301904 <_vfprintf_r+0x1158>
  302418:	e28d2094 	add	r2, sp, #148	; 0x94
  30241c:	e59d001c 	ldr	r0, [sp, #28]
  302420:	e1a01008 	mov	r1, r8
  302424:	eb001132 	bl	3068f4 <__sprint_r>
  302428:	e3500000 	cmp	r0, #0
  30242c:	1afff9c1 	bne	300b38 <_vfprintf_r+0x38c>
  302430:	e28d9f42 	add	r9, sp, #264	; 0x108
  302434:	e59d307c 	ldr	r3, [sp, #124]	; 0x7c
  302438:	e59d509c 	ldr	r5, [sp, #156]	; 0x9c
  30243c:	eafffd72 	b	301a0c <_vfprintf_r+0x1260>
  302440:	e59d302c 	ldr	r3, [sp, #44]	; 0x2c
  302444:	e1c33fc3 	bic	r3, r3, r3, asr #31
  302448:	e58d0040 	str	r0, [sp, #64]	; 0x40
  30244c:	e58d5038 	str	r5, [sp, #56]	; 0x38
  302450:	e58d4020 	str	r4, [sp, #32]
  302454:	e5dd0077 	ldrb	r0, [sp, #119]	; 0x77
  302458:	e58d3024 	str	r3, [sp, #36]	; 0x24
  30245c:	eafffa10 	b	300ca4 <_vfprintf_r+0x4f8>
  302460:	e2433001 	sub	r3, r3, #1
  302464:	e3530000 	cmp	r3, #0
  302468:	b3a0202d 	movlt	r2, #45	; 0x2d
  30246c:	a3a0202b 	movge	r2, #43	; 0x2b
  302470:	e58d307c 	str	r3, [sp, #124]	; 0x7c
  302474:	b2633000 	rsblt	r3, r3, #0
  302478:	e3530009 	cmp	r3, #9
  30247c:	e5cd7084 	strb	r7, [sp, #132]	; 0x84
  302480:	e5cd2085 	strb	r2, [sp, #133]	; 0x85
  302484:	da000032 	ble	302554 <_vfprintf_r+0x1da8>
  302488:	e51f076c 	ldr	r0, [pc, #-1900]	; 301d24 <_vfprintf_r+0x1578>
  30248c:	e2461005 	sub	r1, r6, #5
  302490:	e0cc2390 	smull	r2, ip, r0, r3
  302494:	e1a02fc3 	asr	r2, r3, #31
  302498:	e062c14c 	rsb	ip, r2, ip, asr #2
  30249c:	e08c210c 	add	r2, ip, ip, lsl #2
  3024a0:	e0432082 	sub	r2, r3, r2, lsl #1
  3024a4:	e2822030 	add	r2, r2, #48	; 0x30
  3024a8:	e35c0009 	cmp	ip, #9
  3024ac:	e1a0300c 	mov	r3, ip
  3024b0:	e5612001 	strb	r2, [r1, #-1]!
  3024b4:	cafffff5 	bgt	302490 <_vfprintf_r+0x1ce4>
  3024b8:	e1a02001 	mov	r2, r1
  3024bc:	e28c3030 	add	r3, ip, #48	; 0x30
  3024c0:	e20330ff 	and	r3, r3, #255	; 0xff
  3024c4:	e5623001 	strb	r3, [r2, #-1]!
  3024c8:	e246c005 	sub	ip, r6, #5
  3024cc:	e15c0002 	cmp	ip, r2
  3024d0:	9a000039 	bls	3025bc <_vfprintf_r+0x1e10>
  3024d4:	e1a02001 	mov	r2, r1
  3024d8:	e24a0002 	sub	r0, sl, #2
  3024dc:	ea000000 	b	3024e4 <_vfprintf_r+0x1d38>
  3024e0:	e4d23001 	ldrb	r3, [r2], #1
  3024e4:	e152000c 	cmp	r2, ip
  3024e8:	e4c03001 	strb	r3, [r0], #1
  3024ec:	1afffffb 	bne	3024e0 <_vfprintf_r+0x1d34>
  3024f0:	e2463004 	sub	r3, r6, #4
  3024f4:	e0611003 	rsb	r1, r1, r3
  3024f8:	e24a3002 	sub	r3, sl, #2
  3024fc:	e0833001 	add	r3, r3, r1
  302500:	e59d2048 	ldr	r2, [sp, #72]	; 0x48
  302504:	e24aa004 	sub	sl, sl, #4
  302508:	e06a3003 	rsb	r3, sl, r3
  30250c:	e58d3064 	str	r3, [sp, #100]	; 0x64
  302510:	e3520001 	cmp	r2, #1
  302514:	e0823003 	add	r3, r2, r3
  302518:	e58d302c 	str	r3, [sp, #44]	; 0x2c
  30251c:	cafffe61 	bgt	301ea8 <_vfprintf_r+0x16fc>
  302520:	e3140001 	tst	r4, #1
  302524:	1afffe5f 	bne	301ea8 <_vfprintf_r+0x16fc>
  302528:	eaffff9a 	b	302398 <_vfprintf_r+0x1bec>
  30252c:	e59d304c 	ldr	r3, [sp, #76]	; 0x4c
  302530:	e58d3024 	str	r3, [sp, #36]	; 0x24
  302534:	e59d3050 	ldr	r3, [sp, #80]	; 0x50
  302538:	e2833102 	add	r3, r3, #-2147483648	; 0x80000000
  30253c:	e58d302c 	str	r3, [sp, #44]	; 0x2c
  302540:	e3a0302d 	mov	r3, #45	; 0x2d
  302544:	e58d3040 	str	r3, [sp, #64]	; 0x40
  302548:	eaffff0a 	b	302178 <_vfprintf_r+0x19cc>
  30254c:	e59d308c 	ldr	r3, [sp, #140]	; 0x8c
  302550:	eafffe40 	b	301e58 <_vfprintf_r+0x16ac>
  302554:	e3a02030 	mov	r2, #48	; 0x30
  302558:	e0833002 	add	r3, r3, r2
  30255c:	e5cd3087 	strb	r3, [sp, #135]	; 0x87
  302560:	e5cd2086 	strb	r2, [sp, #134]	; 0x86
  302564:	e1a0300a 	mov	r3, sl
  302568:	eaffffe4 	b	302500 <_vfprintf_r+0x1d54>
  30256c:	e1a03001 	mov	r3, r1
  302570:	e59d1038 	ldr	r1, [sp, #56]	; 0x38
  302574:	e591a000 	ldr	sl, [r1]
  302578:	e2811004 	add	r1, r1, #4
  30257c:	e35a0000 	cmp	sl, #0
  302580:	e58d1038 	str	r1, [sp, #56]	; 0x38
  302584:	b3e0a000 	mvnlt	sl, #0
  302588:	eafff8e0 	b	300910 <_vfprintf_r+0x164>
  30258c:	e35b0000 	cmp	fp, #0
  302590:	1a000004 	bne	3025a8 <_vfprintf_r+0x1dfc>
  302594:	e3140001 	tst	r4, #1
  302598:	03a03001 	moveq	r3, #1
  30259c:	058d3024 	streq	r3, [sp, #36]	; 0x24
  3025a0:	058d302c 	streq	r3, [sp, #44]	; 0x2c
  3025a4:	0afffe44 	beq	301ebc <_vfprintf_r+0x1710>
  3025a8:	e28b3002 	add	r3, fp, #2
  3025ac:	e58d302c 	str	r3, [sp, #44]	; 0x2c
  3025b0:	e1c33fc3 	bic	r3, r3, r3, asr #31
  3025b4:	e58d3024 	str	r3, [sp, #36]	; 0x24
  3025b8:	eafffe3f 	b	301ebc <_vfprintf_r+0x1710>
  3025bc:	e24a3002 	sub	r3, sl, #2
  3025c0:	eaffffce 	b	302500 <_vfprintf_r+0x1d54>
  3025c4:	e1a0500b 	mov	r5, fp
  3025c8:	eaffff00 	b	3021d0 <_vfprintf_r+0x1a24>

003025cc <vfprintf>:
  3025cc:	e52de004 	push	{lr}		; (str lr, [sp, #-4]!)
  3025d0:	e1a0e001 	mov	lr, r1
  3025d4:	e59fc014 	ldr	ip, [pc, #20]	; 3025f0 <vfprintf+0x24>
  3025d8:	e1a03002 	mov	r3, r2
  3025dc:	e1a01000 	mov	r1, r0
  3025e0:	e1a0200e 	mov	r2, lr
  3025e4:	e59c0000 	ldr	r0, [ip]
  3025e8:	e49de004 	pop	{lr}		; (ldr lr, [sp], #4)
  3025ec:	eafff86e 	b	3007ac <_vfprintf_r>
  3025f0:	0030b000 	eorseq	fp, r0, r0

003025f4 <__swsetup_r>:
  3025f4:	e92d4038 	push	{r3, r4, r5, lr}
  3025f8:	e59f312c 	ldr	r3, [pc, #300]	; 30272c <__swsetup_r+0x138>
  3025fc:	e5933000 	ldr	r3, [r3]
  302600:	e3530000 	cmp	r3, #0
  302604:	e1a05000 	mov	r5, r0
  302608:	e1a04001 	mov	r4, r1
  30260c:	0a000002 	beq	30261c <__swsetup_r+0x28>
  302610:	e5932038 	ldr	r2, [r3, #56]	; 0x38
  302614:	e3520000 	cmp	r2, #0
  302618:	0a000030 	beq	3026e0 <__swsetup_r+0xec>
  30261c:	e1d420bc 	ldrh	r2, [r4, #12]
  302620:	e3120008 	tst	r2, #8
  302624:	e1a03002 	mov	r3, r2
  302628:	0a00000c 	beq	302660 <__swsetup_r+0x6c>
  30262c:	e5940010 	ldr	r0, [r4, #16]
  302630:	e3500000 	cmp	r0, #0
  302634:	0a000013 	beq	302688 <__swsetup_r+0x94>
  302638:	e2132001 	ands	r2, r3, #1
  30263c:	1a00001a 	bne	3026ac <__swsetup_r+0xb8>
  302640:	e3130002 	tst	r3, #2
  302644:	05942014 	ldreq	r2, [r4, #20]
  302648:	e3500000 	cmp	r0, #0
  30264c:	e5842008 	str	r2, [r4, #8]
  302650:	13a00000 	movne	r0, #0
  302654:	0a00001c 	beq	3026cc <__swsetup_r+0xd8>
  302658:	e8bd4038 	pop	{r3, r4, r5, lr}
  30265c:	e12fff1e 	bx	lr
  302660:	e3120010 	tst	r2, #16
  302664:	0a00001b 	beq	3026d8 <__swsetup_r+0xe4>
  302668:	e3120004 	tst	r2, #4
  30266c:	1a00001e 	bne	3026ec <__swsetup_r+0xf8>
  302670:	e5940010 	ldr	r0, [r4, #16]
  302674:	e3822008 	orr	r2, r2, #8
  302678:	e3500000 	cmp	r0, #0
  30267c:	e1a03002 	mov	r3, r2
  302680:	e1c420bc 	strh	r2, [r4, #12]
  302684:	1affffeb 	bne	302638 <__swsetup_r+0x44>
  302688:	e2032d0a 	and	r2, r3, #640	; 0x280
  30268c:	e3520c02 	cmp	r2, #512	; 0x200
  302690:	0affffe8 	beq	302638 <__swsetup_r+0x44>
  302694:	e1a00005 	mov	r0, r5
  302698:	e1a01004 	mov	r1, r4
  30269c:	eb000927 	bl	304b40 <__smakebuf_r>
  3026a0:	e1d430bc 	ldrh	r3, [r4, #12]
  3026a4:	e5940010 	ldr	r0, [r4, #16]
  3026a8:	eaffffe2 	b	302638 <__swsetup_r+0x44>
  3026ac:	e3a02000 	mov	r2, #0
  3026b0:	e5943014 	ldr	r3, [r4, #20]
  3026b4:	e3500000 	cmp	r0, #0
  3026b8:	e2633000 	rsb	r3, r3, #0
  3026bc:	e5843018 	str	r3, [r4, #24]
  3026c0:	e5842008 	str	r2, [r4, #8]
  3026c4:	13a00000 	movne	r0, #0
  3026c8:	1affffe2 	bne	302658 <__swsetup_r+0x64>
  3026cc:	e1d430bc 	ldrh	r3, [r4, #12]
  3026d0:	e3130080 	tst	r3, #128	; 0x80
  3026d4:	0affffdf 	beq	302658 <__swsetup_r+0x64>
  3026d8:	e3e00000 	mvn	r0, #0
  3026dc:	eaffffdd 	b	302658 <__swsetup_r+0x64>
  3026e0:	e1a00003 	mov	r0, r3
  3026e4:	eb00078e 	bl	304524 <__sinit>
  3026e8:	eaffffcb 	b	30261c <__swsetup_r+0x28>
  3026ec:	e5941030 	ldr	r1, [r4, #48]	; 0x30
  3026f0:	e3510000 	cmp	r1, #0
  3026f4:	0a000007 	beq	302718 <__swsetup_r+0x124>
  3026f8:	e2843040 	add	r3, r4, #64	; 0x40
  3026fc:	e1510003 	cmp	r1, r3
  302700:	0a000002 	beq	302710 <__swsetup_r+0x11c>
  302704:	e1a00005 	mov	r0, r5
  302708:	eb0007df 	bl	30468c <_free_r>
  30270c:	e1d420bc 	ldrh	r2, [r4, #12]
  302710:	e3a03000 	mov	r3, #0
  302714:	e5843030 	str	r3, [r4, #48]	; 0x30
  302718:	e3a03000 	mov	r3, #0
  30271c:	e5940010 	ldr	r0, [r4, #16]
  302720:	e3c22024 	bic	r2, r2, #36	; 0x24
  302724:	e8840009 	stm	r4, {r0, r3}
  302728:	eaffffd1 	b	302674 <__swsetup_r+0x80>
  30272c:	0030b000 	eorseq	fp, r0, r0

00302730 <quorem>:
  302730:	e92d4ff0 	push	{r4, r5, r6, r7, r8, r9, sl, fp, lr}
  302734:	e5903010 	ldr	r3, [r0, #16]
  302738:	e5915010 	ldr	r5, [r1, #16]
  30273c:	e1550003 	cmp	r5, r3
  302740:	e24dd00c 	sub	sp, sp, #12
  302744:	c3a00000 	movgt	r0, #0
  302748:	ca00006b 	bgt	3028fc <quorem+0x1cc>
  30274c:	e2455001 	sub	r5, r5, #1
  302750:	e2814014 	add	r4, r1, #20
  302754:	e58d1000 	str	r1, [sp]
  302758:	e7941105 	ldr	r1, [r4, r5, lsl #2]
  30275c:	e2809014 	add	r9, r0, #20
  302760:	e1a06000 	mov	r6, r0
  302764:	e2811001 	add	r1, r1, #1
  302768:	e7990105 	ldr	r0, [r9, r5, lsl #2]
  30276c:	eb001a49 	bl	309098 <__aeabi_uidiv>
  302770:	e1a0a105 	lsl	sl, r5, #2
  302774:	e089300a 	add	r3, r9, sl
  302778:	e2507000 	subs	r7, r0, #0
  30277c:	e084800a 	add	r8, r4, sl
  302780:	e58d3004 	str	r3, [sp, #4]
  302784:	0a00002f 	beq	302848 <quorem+0x118>
  302788:	e3a01000 	mov	r1, #0
  30278c:	e1a0b004 	mov	fp, r4
  302790:	e1a00009 	mov	r0, r9
  302794:	e1a03001 	mov	r3, r1
  302798:	e49bc004 	ldr	ip, [fp], #4
  30279c:	e1a0280c 	lsl	r2, ip, #16
  3027a0:	e1a0e822 	lsr	lr, r2, #16
  3027a4:	e1a0c82c 	lsr	ip, ip, #16
  3027a8:	e022179e 	mla	r2, lr, r7, r1
  3027ac:	e001079c 	mul	r1, ip, r7
  3027b0:	e590c000 	ldr	ip, [r0]
  3027b4:	e0811822 	add	r1, r1, r2, lsr #16
  3027b8:	e1a02802 	lsl	r2, r2, #16
  3027bc:	e0433822 	sub	r3, r3, r2, lsr #16
  3027c0:	e1a0e80c 	lsl	lr, ip, #16
  3027c4:	e1a02801 	lsl	r2, r1, #16
  3027c8:	e083382e 	add	r3, r3, lr, lsr #16
  3027cc:	e1a02822 	lsr	r2, r2, #16
  3027d0:	e062282c 	rsb	r2, r2, ip, lsr #16
  3027d4:	e1a0c803 	lsl	ip, r3, #16
  3027d8:	e0823843 	add	r3, r2, r3, asr #16
  3027dc:	e1a0282c 	lsr	r2, ip, #16
  3027e0:	e1822803 	orr	r2, r2, r3, lsl #16
  3027e4:	e158000b 	cmp	r8, fp
  3027e8:	e4802004 	str	r2, [r0], #4
  3027ec:	e1a03843 	asr	r3, r3, #16
  3027f0:	e1a01821 	lsr	r1, r1, #16
  3027f4:	2affffe7 	bcs	302798 <quorem+0x68>
  3027f8:	e799300a 	ldr	r3, [r9, sl]
  3027fc:	e3530000 	cmp	r3, #0
  302800:	1a000010 	bne	302848 <quorem+0x118>
  302804:	e59d2004 	ldr	r2, [sp, #4]
  302808:	e2423004 	sub	r3, r2, #4
  30280c:	e1590003 	cmp	r9, r3
  302810:	2a00000b 	bcs	302844 <quorem+0x114>
  302814:	e5123004 	ldr	r3, [r2, #-4]
  302818:	e3530000 	cmp	r3, #0
  30281c:	1a000008 	bne	302844 <quorem+0x114>
  302820:	e2423008 	sub	r3, r2, #8
  302824:	ea000003 	b	302838 <quorem+0x108>
  302828:	e5932000 	ldr	r2, [r3]
  30282c:	e3520000 	cmp	r2, #0
  302830:	e2433004 	sub	r3, r3, #4
  302834:	1a000002 	bne	302844 <quorem+0x114>
  302838:	e1590003 	cmp	r9, r3
  30283c:	e2455001 	sub	r5, r5, #1
  302840:	3afffff8 	bcc	302828 <quorem+0xf8>
  302844:	e5865010 	str	r5, [r6, #16]
  302848:	e59d1000 	ldr	r1, [sp]
  30284c:	e1a00006 	mov	r0, r6
  302850:	eb000d75 	bl	305e2c <__mcmp>
  302854:	e3500000 	cmp	r0, #0
  302858:	ba000026 	blt	3028f8 <quorem+0x1c8>
  30285c:	e1a0c009 	mov	ip, r9
  302860:	e3a03000 	mov	r3, #0
  302864:	e2877001 	add	r7, r7, #1
  302868:	e4942004 	ldr	r2, [r4], #4
  30286c:	e59c0000 	ldr	r0, [ip]
  302870:	e1a01802 	lsl	r1, r2, #16
  302874:	e0433821 	sub	r3, r3, r1, lsr #16
  302878:	e1a01800 	lsl	r1, r0, #16
  30287c:	e0831821 	add	r1, r3, r1, lsr #16
  302880:	e1a02822 	lsr	r2, r2, #16
  302884:	e0622820 	rsb	r2, r2, r0, lsr #16
  302888:	e1a00801 	lsl	r0, r1, #16
  30288c:	e0823841 	add	r3, r2, r1, asr #16
  302890:	e1a02820 	lsr	r2, r0, #16
  302894:	e1822803 	orr	r2, r2, r3, lsl #16
  302898:	e1580004 	cmp	r8, r4
  30289c:	e48c2004 	str	r2, [ip], #4
  3028a0:	e1a03843 	asr	r3, r3, #16
  3028a4:	2affffef 	bcs	302868 <quorem+0x138>
  3028a8:	e7993105 	ldr	r3, [r9, r5, lsl #2]
  3028ac:	e3530000 	cmp	r3, #0
  3028b0:	e0893105 	add	r3, r9, r5, lsl #2
  3028b4:	1a00000f 	bne	3028f8 <quorem+0x1c8>
  3028b8:	e2432004 	sub	r2, r3, #4
  3028bc:	e1590002 	cmp	r9, r2
  3028c0:	2a00000b 	bcs	3028f4 <quorem+0x1c4>
  3028c4:	e5132004 	ldr	r2, [r3, #-4]
  3028c8:	e3520000 	cmp	r2, #0
  3028cc:	1a000008 	bne	3028f4 <quorem+0x1c4>
  3028d0:	e2433008 	sub	r3, r3, #8
  3028d4:	ea000003 	b	3028e8 <quorem+0x1b8>
  3028d8:	e5932000 	ldr	r2, [r3]
  3028dc:	e3520000 	cmp	r2, #0
  3028e0:	e2433004 	sub	r3, r3, #4
  3028e4:	1a000002 	bne	3028f4 <quorem+0x1c4>
  3028e8:	e1590003 	cmp	r9, r3
  3028ec:	e2455001 	sub	r5, r5, #1
  3028f0:	3afffff8 	bcc	3028d8 <quorem+0x1a8>
  3028f4:	e5865010 	str	r5, [r6, #16]
  3028f8:	e1a00007 	mov	r0, r7
  3028fc:	e28dd00c 	add	sp, sp, #12
  302900:	e8bd4ff0 	pop	{r4, r5, r6, r7, r8, r9, sl, fp, lr}
  302904:	e12fff1e 	bx	lr

00302908 <_dtoa_r>:
  302908:	e92d4ff0 	push	{r4, r5, r6, r7, r8, r9, sl, fp, lr}
  30290c:	e5901040 	ldr	r1, [r0, #64]	; 0x40
  302910:	e24dd064 	sub	sp, sp, #100	; 0x64
  302914:	e3510000 	cmp	r1, #0
  302918:	e1a04000 	mov	r4, r0
  30291c:	e1a0a002 	mov	sl, r2
  302920:	e1a0b003 	mov	fp, r3
  302924:	e59d5094 	ldr	r5, [sp, #148]	; 0x94
  302928:	0a000006 	beq	302948 <_dtoa_r+0x40>
  30292c:	e3a03001 	mov	r3, #1
  302930:	e5902044 	ldr	r2, [r0, #68]	; 0x44
  302934:	e1a03213 	lsl	r3, r3, r2
  302938:	e981000c 	stmib	r1, {r2, r3}
  30293c:	eb000b82 	bl	30574c <_Bfree>
  302940:	e3a03000 	mov	r3, #0
  302944:	e5843040 	str	r3, [r4, #64]	; 0x40
  302948:	e35b0000 	cmp	fp, #0
  30294c:	b3a03001 	movlt	r3, #1
  302950:	a3a03000 	movge	r3, #0
  302954:	b5853000 	strlt	r3, [r5]
  302958:	a5853000 	strge	r3, [r5]
  30295c:	e59f3504 	ldr	r3, [pc, #1284]	; 302e68 <_dtoa_r+0x560>
  302960:	e1a0900b 	mov	r9, fp
  302964:	e1a02003 	mov	r2, r3
  302968:	b3cb9102 	biclt	r9, fp, #-2147483648	; 0x80000000
  30296c:	e0033009 	and	r3, r3, r9
  302970:	b1a0b009 	movlt	fp, r9
  302974:	e1530002 	cmp	r3, r2
  302978:	0a000013 	beq	3029cc <_dtoa_r+0xc4>
  30297c:	e3a02000 	mov	r2, #0
  302980:	e3a03000 	mov	r3, #0
  302984:	e1a0000a 	mov	r0, sl
  302988:	e1a0100b 	mov	r1, fp
  30298c:	eb001c68 	bl	309b34 <__aeabi_dcmpeq>
  302990:	e2508000 	subs	r8, r0, #0
  302994:	0a00001e 	beq	302a14 <_dtoa_r+0x10c>
  302998:	e3a03001 	mov	r3, #1
  30299c:	e59d2098 	ldr	r2, [sp, #152]	; 0x98
  3029a0:	e3520000 	cmp	r2, #0
  3029a4:	e59d2090 	ldr	r2, [sp, #144]	; 0x90
  3029a8:	e5823000 	str	r3, [r2]
  3029ac:	0a00009c 	beq	302c24 <_dtoa_r+0x31c>
  3029b0:	e59f04b4 	ldr	r0, [pc, #1204]	; 302e6c <_dtoa_r+0x564>
  3029b4:	e59d3098 	ldr	r3, [sp, #152]	; 0x98
  3029b8:	e5830000 	str	r0, [r3]
  3029bc:	e2400001 	sub	r0, r0, #1
  3029c0:	e28dd064 	add	sp, sp, #100	; 0x64
  3029c4:	e8bd4ff0 	pop	{r4, r5, r6, r7, r8, r9, sl, fp, lr}
  3029c8:	e12fff1e 	bx	lr
  3029cc:	e59f349c 	ldr	r3, [pc, #1180]	; 302e70 <_dtoa_r+0x568>
  3029d0:	e59d2090 	ldr	r2, [sp, #144]	; 0x90
  3029d4:	e35a0000 	cmp	sl, #0
  3029d8:	e5823000 	str	r3, [r2]
  3029dc:	0a00007f 	beq	302be0 <_dtoa_r+0x2d8>
  3029e0:	e59f048c 	ldr	r0, [pc, #1164]	; 302e74 <_dtoa_r+0x56c>
  3029e4:	e59d3098 	ldr	r3, [sp, #152]	; 0x98
  3029e8:	e3530000 	cmp	r3, #0
  3029ec:	0afffff3 	beq	3029c0 <_dtoa_r+0xb8>
  3029f0:	e5d03003 	ldrb	r3, [r0, #3]
  3029f4:	e59d2098 	ldr	r2, [sp, #152]	; 0x98
  3029f8:	e3530000 	cmp	r3, #0
  3029fc:	12803008 	addne	r3, r0, #8
  302a00:	02803003 	addeq	r3, r0, #3
  302a04:	e5823000 	str	r3, [r2]
  302a08:	e28dd064 	add	sp, sp, #100	; 0x64
  302a0c:	e8bd4ff0 	pop	{r4, r5, r6, r7, r8, r9, sl, fp, lr}
  302a10:	e12fff1e 	bx	lr
  302a14:	e28d205c 	add	r2, sp, #92	; 0x5c
  302a18:	e28d3058 	add	r3, sp, #88	; 0x58
  302a1c:	e88d000c 	stm	sp, {r2, r3}
  302a20:	e1a00004 	mov	r0, r4
  302a24:	e1a0200a 	mov	r2, sl
  302a28:	e1a0300b 	mov	r3, fp
  302a2c:	eb000dc4 	bl	306144 <__d2b>
  302a30:	e1b05a29 	lsrs	r5, r9, #20
  302a34:	e58d0014 	str	r0, [sp, #20]
  302a38:	1a00006f 	bne	302bfc <_dtoa_r+0x2f4>
  302a3c:	e3e03e41 	mvn	r3, #1040	; 0x410
  302a40:	e59d8058 	ldr	r8, [sp, #88]	; 0x58
  302a44:	e59d505c 	ldr	r5, [sp, #92]	; 0x5c
  302a48:	e0885005 	add	r5, r8, r5
  302a4c:	e1550003 	cmp	r5, r3
  302a50:	a2853e41 	addge	r3, r5, #1040	; 0x410
  302a54:	a59f041c 	ldrge	r0, [pc, #1052]	; 302e78 <_dtoa_r+0x570>
  302a58:	b59f041c 	ldrlt	r0, [pc, #1052]	; 302e7c <_dtoa_r+0x574>
  302a5c:	a2833002 	addge	r3, r3, #2
  302a60:	a1a0333a 	lsrge	r3, sl, r3
  302a64:	a0650000 	rsbge	r0, r5, r0
  302a68:	b0650000 	rsblt	r0, r5, r0
  302a6c:	a1830019 	orrge	r0, r3, r9, lsl r0
  302a70:	b1a0001a 	lsllt	r0, sl, r0
  302a74:	eb001a94 	bl	3094cc <__aeabi_ui2d>
  302a78:	e3a03001 	mov	r3, #1
  302a7c:	e58d3044 	str	r3, [sp, #68]	; 0x44
  302a80:	e2455001 	sub	r5, r5, #1
  302a84:	e241161f 	sub	r1, r1, #32505856	; 0x1f00000
  302a88:	e3a02000 	mov	r2, #0
  302a8c:	e59f33ec 	ldr	r3, [pc, #1004]	; 302e80 <_dtoa_r+0x578>
  302a90:	eb0019c8 	bl	3091b8 <__aeabi_dsub>
  302a94:	e28f3fed 	add	r3, pc, #948	; 0x3b4
  302a98:	e893000c 	ldm	r3, {r2, r3}
  302a9c:	eb001aca 	bl	3095cc <__aeabi_dmul>
  302aa0:	e28f3e3b 	add	r3, pc, #944	; 0x3b0
  302aa4:	e893000c 	ldm	r3, {r2, r3}
  302aa8:	eb0019c3 	bl	3091bc <__adddf3>
  302aac:	e1a06000 	mov	r6, r0
  302ab0:	e1a00005 	mov	r0, r5
  302ab4:	e1a07001 	mov	r7, r1
  302ab8:	eb001a8c 	bl	3094f0 <__aeabi_i2d>
  302abc:	e28f3fe7 	add	r3, pc, #924	; 0x39c
  302ac0:	e893000c 	ldm	r3, {r2, r3}
  302ac4:	eb001ac0 	bl	3095cc <__aeabi_dmul>
  302ac8:	e1a02000 	mov	r2, r0
  302acc:	e1a03001 	mov	r3, r1
  302ad0:	e1a00006 	mov	r0, r6
  302ad4:	e1a01007 	mov	r1, r7
  302ad8:	eb0019b7 	bl	3091bc <__adddf3>
  302adc:	e1a06000 	mov	r6, r0
  302ae0:	e1a07001 	mov	r7, r1
  302ae4:	eb001c30 	bl	309bac <__aeabi_d2iz>
  302ae8:	e1a01007 	mov	r1, r7
  302aec:	e58d0008 	str	r0, [sp, #8]
  302af0:	e3a02000 	mov	r2, #0
  302af4:	e1a00006 	mov	r0, r6
  302af8:	e3a03000 	mov	r3, #0
  302afc:	eb001c12 	bl	309b4c <__aeabi_dcmplt>
  302b00:	e3500000 	cmp	r0, #0
  302b04:	1a000196 	bne	303164 <_dtoa_r+0x85c>
  302b08:	e59d3008 	ldr	r3, [sp, #8]
  302b0c:	e3530016 	cmp	r3, #22
  302b10:	83a03001 	movhi	r3, #1
  302b14:	858d302c 	strhi	r3, [sp, #44]	; 0x2c
  302b18:	8a00000d 	bhi	302b54 <_dtoa_r+0x24c>
  302b1c:	e59d2008 	ldr	r2, [sp, #8]
  302b20:	e59f3370 	ldr	r3, [pc, #880]	; 302e98 <_dtoa_r+0x590>
  302b24:	e0833182 	add	r3, r3, r2, lsl #3
  302b28:	e8930003 	ldm	r3, {r0, r1}
  302b2c:	e1a0200a 	mov	r2, sl
  302b30:	e1a0300b 	mov	r3, fp
  302b34:	eb001c16 	bl	309b94 <__aeabi_dcmpgt>
  302b38:	e3500000 	cmp	r0, #0
  302b3c:	159d3008 	ldrne	r3, [sp, #8]
  302b40:	12433001 	subne	r3, r3, #1
  302b44:	158d3008 	strne	r3, [sp, #8]
  302b48:	13a03000 	movne	r3, #0
  302b4c:	058d002c 	streq	r0, [sp, #44]	; 0x2c
  302b50:	158d302c 	strne	r3, [sp, #44]	; 0x2c
  302b54:	e0655008 	rsb	r5, r5, r8
  302b58:	e2553001 	subs	r3, r5, #1
  302b5c:	e58d300c 	str	r3, [sp, #12]
  302b60:	42633000 	rsbmi	r3, r3, #0
  302b64:	458d3018 	strmi	r3, [sp, #24]
  302b68:	53a03000 	movpl	r3, #0
  302b6c:	43a03000 	movmi	r3, #0
  302b70:	558d3018 	strpl	r3, [sp, #24]
  302b74:	458d300c 	strmi	r3, [sp, #12]
  302b78:	e59d3008 	ldr	r3, [sp, #8]
  302b7c:	e3530000 	cmp	r3, #0
  302b80:	ba00016e 	blt	303140 <_dtoa_r+0x838>
  302b84:	e59d200c 	ldr	r2, [sp, #12]
  302b88:	e58d3028 	str	r3, [sp, #40]	; 0x28
  302b8c:	e0822003 	add	r2, r2, r3
  302b90:	e3a03000 	mov	r3, #0
  302b94:	e58d200c 	str	r2, [sp, #12]
  302b98:	e58d3020 	str	r3, [sp, #32]
  302b9c:	e59d3088 	ldr	r3, [sp, #136]	; 0x88
  302ba0:	e3530009 	cmp	r3, #9
  302ba4:	8a000020 	bhi	302c2c <_dtoa_r+0x324>
  302ba8:	e3530005 	cmp	r3, #5
  302bac:	d3a05001 	movle	r5, #1
  302bb0:	c3a05000 	movgt	r5, #0
  302bb4:	c2433004 	subgt	r3, r3, #4
  302bb8:	c58d3088 	strgt	r3, [sp, #136]	; 0x88
  302bbc:	e59d3088 	ldr	r3, [sp, #136]	; 0x88
  302bc0:	e2433002 	sub	r3, r3, #2
  302bc4:	e3530003 	cmp	r3, #3
  302bc8:	979ff103 	ldrls	pc, [pc, r3, lsl #2]
  302bcc:	ea00016e 	b	30318c <_dtoa_r+0x884>
  302bd0:	003035f0 	ldrshteq	r3, [r0], -r0
  302bd4:	003035b0 	ldrhteq	r3, [r0], -r0
  302bd8:	0030326c 	eorseq	r3, r0, ip, ror #4
  302bdc:	00303f88 	eorseq	r3, r0, r8, lsl #31
  302be0:	e3c994ff 	bic	r9, r9, #-16777216	; 0xff000000
  302be4:	e59f3288 	ldr	r3, [pc, #648]	; 302e74 <_dtoa_r+0x56c>
  302be8:	e3c9960f 	bic	r9, r9, #15728640	; 0xf00000
  302bec:	e3590000 	cmp	r9, #0
  302bf0:	e59f028c 	ldr	r0, [pc, #652]	; 302e84 <_dtoa_r+0x57c>
  302bf4:	11a00003 	movne	r0, r3
  302bf8:	eaffff79 	b	3029e4 <_dtoa_r+0xdc>
  302bfc:	e3cb34ff 	bic	r3, fp, #-16777216	; 0xff000000
  302c00:	e3c3360f 	bic	r3, r3, #15728640	; 0xf00000
  302c04:	e2455fff 	sub	r5, r5, #1020	; 0x3fc
  302c08:	e38335ff 	orr	r3, r3, #1069547520	; 0x3fc00000
  302c0c:	e58d8044 	str	r8, [sp, #68]	; 0x44
  302c10:	e1a0000a 	mov	r0, sl
  302c14:	e2455003 	sub	r5, r5, #3
  302c18:	e3831603 	orr	r1, r3, #3145728	; 0x300000
  302c1c:	e59d8058 	ldr	r8, [sp, #88]	; 0x58
  302c20:	eaffff98 	b	302a88 <_dtoa_r+0x180>
  302c24:	e59f025c 	ldr	r0, [pc, #604]	; 302e88 <_dtoa_r+0x580>
  302c28:	eaffff64 	b	3029c0 <_dtoa_r+0xb8>
  302c2c:	e3a01000 	mov	r1, #0
  302c30:	e1a00004 	mov	r0, r4
  302c34:	e5841044 	str	r1, [r4, #68]	; 0x44
  302c38:	e58d108c 	str	r1, [sp, #140]	; 0x8c
  302c3c:	eb000a9e 	bl	3056bc <_Balloc>
  302c40:	e3e03000 	mvn	r3, #0
  302c44:	e58d3040 	str	r3, [sp, #64]	; 0x40
  302c48:	e58d3010 	str	r3, [sp, #16]
  302c4c:	e3a03001 	mov	r3, #1
  302c50:	e59d208c 	ldr	r2, [sp, #140]	; 0x8c
  302c54:	e58d001c 	str	r0, [sp, #28]
  302c58:	e5840040 	str	r0, [r4, #64]	; 0x40
  302c5c:	e58d2088 	str	r2, [sp, #136]	; 0x88
  302c60:	e58d3024 	str	r3, [sp, #36]	; 0x24
  302c64:	e59d2008 	ldr	r2, [sp, #8]
  302c68:	e59d305c 	ldr	r3, [sp, #92]	; 0x5c
  302c6c:	e352000e 	cmp	r2, #14
  302c70:	c3a02000 	movgt	r2, #0
  302c74:	d3a02001 	movle	r2, #1
  302c78:	e3530000 	cmp	r3, #0
  302c7c:	b3a02000 	movlt	r2, #0
  302c80:	e3520000 	cmp	r2, #0
  302c84:	0a000093 	beq	302ed8 <_dtoa_r+0x5d0>
  302c88:	e59d308c 	ldr	r3, [sp, #140]	; 0x8c
  302c8c:	e1a02fa3 	lsr	r2, r3, #31
  302c90:	e59d3010 	ldr	r3, [sp, #16]
  302c94:	e3530000 	cmp	r3, #0
  302c98:	c3a02000 	movgt	r2, #0
  302c9c:	d2022001 	andle	r2, r2, #1
  302ca0:	e59f31f0 	ldr	r3, [pc, #496]	; 302e98 <_dtoa_r+0x590>
  302ca4:	e3520000 	cmp	r2, #0
  302ca8:	e59d2008 	ldr	r2, [sp, #8]
  302cac:	e0833182 	add	r3, r3, r2, lsl #3
  302cb0:	e8930300 	ldm	r3, {r8, r9}
  302cb4:	1a000250 	bne	3035fc <_dtoa_r+0xcf4>
  302cb8:	e1a02008 	mov	r2, r8
  302cbc:	e1a03009 	mov	r3, r9
  302cc0:	e1a0000a 	mov	r0, sl
  302cc4:	e1a0100b 	mov	r1, fp
  302cc8:	eb001ae3 	bl	30985c <__aeabi_ddiv>
  302ccc:	eb001bb6 	bl	309bac <__aeabi_d2iz>
  302cd0:	e1a0600a 	mov	r6, sl
  302cd4:	e1a0a000 	mov	sl, r0
  302cd8:	eb001a04 	bl	3094f0 <__aeabi_i2d>
  302cdc:	e1a02008 	mov	r2, r8
  302ce0:	e1a03009 	mov	r3, r9
  302ce4:	eb001a38 	bl	3095cc <__aeabi_dmul>
  302ce8:	e1a02000 	mov	r2, r0
  302cec:	e1a03001 	mov	r3, r1
  302cf0:	e1a00006 	mov	r0, r6
  302cf4:	e1a0100b 	mov	r1, fp
  302cf8:	eb00192e 	bl	3091b8 <__aeabi_dsub>
  302cfc:	e59dc010 	ldr	ip, [sp, #16]
  302d00:	e59de01c 	ldr	lr, [sp, #28]
  302d04:	e35c0001 	cmp	ip, #1
  302d08:	e28ac030 	add	ip, sl, #48	; 0x30
  302d0c:	e1a02000 	mov	r2, r0
  302d10:	e1a03001 	mov	r3, r1
  302d14:	e5cec000 	strb	ip, [lr]
  302d18:	e28e5001 	add	r5, lr, #1
  302d1c:	0a000030 	beq	302de4 <_dtoa_r+0x4dc>
  302d20:	e3a02000 	mov	r2, #0
  302d24:	e59f3174 	ldr	r3, [pc, #372]	; 302ea0 <_dtoa_r+0x598>
  302d28:	eb001a27 	bl	3095cc <__aeabi_dmul>
  302d2c:	e3a02000 	mov	r2, #0
  302d30:	e3a03000 	mov	r3, #0
  302d34:	e1a06000 	mov	r6, r0
  302d38:	e1a07001 	mov	r7, r1
  302d3c:	eb001b7c 	bl	309b34 <__aeabi_dcmpeq>
  302d40:	e3500000 	cmp	r0, #0
  302d44:	1a0000ec 	bne	3030fc <_dtoa_r+0x7f4>
  302d48:	e59db010 	ldr	fp, [sp, #16]
  302d4c:	e59da01c 	ldr	sl, [sp, #28]
  302d50:	e58d400c 	str	r4, [sp, #12]
  302d54:	ea000009 	b	302d80 <_dtoa_r+0x478>
  302d58:	e3a02000 	mov	r2, #0
  302d5c:	e59f313c 	ldr	r3, [pc, #316]	; 302ea0 <_dtoa_r+0x598>
  302d60:	eb001a19 	bl	3095cc <__aeabi_dmul>
  302d64:	e3a02000 	mov	r2, #0
  302d68:	e3a03000 	mov	r3, #0
  302d6c:	e1a06000 	mov	r6, r0
  302d70:	e1a07001 	mov	r7, r1
  302d74:	eb001b6e 	bl	309b34 <__aeabi_dcmpeq>
  302d78:	e3500000 	cmp	r0, #0
  302d7c:	1a00041b 	bne	303df0 <_dtoa_r+0x14e8>
  302d80:	e1a02008 	mov	r2, r8
  302d84:	e1a03009 	mov	r3, r9
  302d88:	e1a00006 	mov	r0, r6
  302d8c:	e1a01007 	mov	r1, r7
  302d90:	eb001ab1 	bl	30985c <__aeabi_ddiv>
  302d94:	eb001b84 	bl	309bac <__aeabi_d2iz>
  302d98:	e1a04000 	mov	r4, r0
  302d9c:	eb0019d3 	bl	3094f0 <__aeabi_i2d>
  302da0:	e1a02008 	mov	r2, r8
  302da4:	e1a03009 	mov	r3, r9
  302da8:	eb001a07 	bl	3095cc <__aeabi_dmul>
  302dac:	e1a02000 	mov	r2, r0
  302db0:	e1a03001 	mov	r3, r1
  302db4:	e1a00006 	mov	r0, r6
  302db8:	e1a01007 	mov	r1, r7
  302dbc:	eb0018fd 	bl	3091b8 <__aeabi_dsub>
  302dc0:	e284e030 	add	lr, r4, #48	; 0x30
  302dc4:	e4c5e001 	strb	lr, [r5], #1
  302dc8:	e06ae005 	rsb	lr, sl, r5
  302dcc:	e15b000e 	cmp	fp, lr
  302dd0:	e1a02000 	mov	r2, r0
  302dd4:	e1a03001 	mov	r3, r1
  302dd8:	1affffde 	bne	302d58 <_dtoa_r+0x450>
  302ddc:	e1a0a004 	mov	sl, r4
  302de0:	e59d400c 	ldr	r4, [sp, #12]
  302de4:	e1a00002 	mov	r0, r2
  302de8:	e1a01003 	mov	r1, r3
  302dec:	eb0018f2 	bl	3091bc <__adddf3>
  302df0:	e1a06000 	mov	r6, r0
  302df4:	e1a07001 	mov	r7, r1
  302df8:	e1a00008 	mov	r0, r8
  302dfc:	e1a01009 	mov	r1, r9
  302e00:	e1a02006 	mov	r2, r6
  302e04:	e1a03007 	mov	r3, r7
  302e08:	eb001b4f 	bl	309b4c <__aeabi_dcmplt>
  302e0c:	e3500000 	cmp	r0, #0
  302e10:	1a000008 	bne	302e38 <_dtoa_r+0x530>
  302e14:	e1a00008 	mov	r0, r8
  302e18:	e1a01009 	mov	r1, r9
  302e1c:	e1a02006 	mov	r2, r6
  302e20:	e1a03007 	mov	r3, r7
  302e24:	eb001b42 	bl	309b34 <__aeabi_dcmpeq>
  302e28:	e3500000 	cmp	r0, #0
  302e2c:	0a0000b2 	beq	3030fc <_dtoa_r+0x7f4>
  302e30:	e31a0001 	tst	sl, #1
  302e34:	0a0000b0 	beq	3030fc <_dtoa_r+0x7f4>
  302e38:	e59d3008 	ldr	r3, [sp, #8]
  302e3c:	e58d3050 	str	r3, [sp, #80]	; 0x50
  302e40:	e5556001 	ldrb	r6, [r5, #-1]
  302e44:	e2452001 	sub	r2, r5, #1
  302e48:	e59d301c 	ldr	r3, [sp, #28]
  302e4c:	ea000018 	b	302eb4 <_dtoa_r+0x5ac>
  302e50:	636f4361 	cmnvs	pc, #-2080374783	; 0x84000001
  302e54:	3fd287a7 	svccc	0x00d287a7
  302e58:	8b60c8b3 	blhi	1b3512c <__bss_end+0x181912c>
  302e5c:	3fc68a28 	svccc	0x00c68a28
  302e60:	509f79fb 			; <UNDEFINED> instruction: 0x509f79fb
  302e64:	3fd34413 	svccc	0x00d34413
  302e68:	7ff00000 	svcvc	0x00f00000	; IMB
  302e6c:	0030a2b5 	ldrhteq	sl, [r0], -r5
  302e70:	0000270f 	andeq	r2, r0, pc, lsl #14
  302e74:	0030a2c4 	eorseq	sl, r0, r4, asr #5
  302e78:	fffffc0e 			; <UNDEFINED> instruction: 0xfffffc0e
  302e7c:	fffffbee 			; <UNDEFINED> instruction: 0xfffffbee
  302e80:	3ff80000 	svccc	0x00f80000
  302e84:	0030a2b8 	ldrhteq	sl, [r0], -r8
  302e88:	0030a2b4 	ldrhteq	sl, [r0], -r4
  302e8c:	3ff00000 	svccc	0x00f00000	; IMB
  302e90:	40140000 	andsmi	r0, r4, r0
  302e94:	0030a160 	eorseq	sl, r0, r0, ror #2
  302e98:	0030a070 	eorseq	sl, r0, r0, ror r0
  302e9c:	3fe00000 	svccc	0x00e00000
  302ea0:	40240000 	eormi	r0, r4, r0
  302ea4:	401c0000 	andsmi	r0, ip, r0
  302ea8:	e1520003 	cmp	r2, r3
  302eac:	0a0003af 	beq	303d70 <_dtoa_r+0x1468>
  302eb0:	e5726001 	ldrb	r6, [r2, #-1]!
  302eb4:	e3560039 	cmp	r6, #57	; 0x39
  302eb8:	e2825001 	add	r5, r2, #1
  302ebc:	0afffff9 	beq	302ea8 <_dtoa_r+0x5a0>
  302ec0:	e59d3050 	ldr	r3, [sp, #80]	; 0x50
  302ec4:	e58d3008 	str	r3, [sp, #8]
  302ec8:	e2863001 	add	r3, r6, #1
  302ecc:	e20330ff 	and	r3, r3, #255	; 0xff
  302ed0:	e5c23000 	strb	r3, [r2]
  302ed4:	ea000088 	b	3030fc <_dtoa_r+0x7f4>
  302ed8:	e59d2024 	ldr	r2, [sp, #36]	; 0x24
  302edc:	e3520000 	cmp	r2, #0
  302ee0:	1a0000bf 	bne	3031e4 <_dtoa_r+0x8dc>
  302ee4:	e59d7020 	ldr	r7, [sp, #32]
  302ee8:	e59d5018 	ldr	r5, [sp, #24]
  302eec:	e59d6024 	ldr	r6, [sp, #36]	; 0x24
  302ef0:	e59d300c 	ldr	r3, [sp, #12]
  302ef4:	e3530000 	cmp	r3, #0
  302ef8:	c3550000 	cmpgt	r5, #0
  302efc:	da000008 	ble	302f24 <_dtoa_r+0x61c>
  302f00:	e1530005 	cmp	r3, r5
  302f04:	e1a02003 	mov	r2, r3
  302f08:	a1a03005 	movge	r3, r5
  302f0c:	e59d1018 	ldr	r1, [sp, #24]
  302f10:	e0635005 	rsb	r5, r3, r5
  302f14:	e0631001 	rsb	r1, r3, r1
  302f18:	e0633002 	rsb	r3, r3, r2
  302f1c:	e58d1018 	str	r1, [sp, #24]
  302f20:	e58d300c 	str	r3, [sp, #12]
  302f24:	e59d3020 	ldr	r3, [sp, #32]
  302f28:	e3530000 	cmp	r3, #0
  302f2c:	da000016 	ble	302f8c <_dtoa_r+0x684>
  302f30:	e59d3024 	ldr	r3, [sp, #36]	; 0x24
  302f34:	e3530000 	cmp	r3, #0
  302f38:	0a000360 	beq	303cc0 <_dtoa_r+0x13b8>
  302f3c:	e3570000 	cmp	r7, #0
  302f40:	da00000e 	ble	302f80 <_dtoa_r+0x678>
  302f44:	e1a01006 	mov	r1, r6
  302f48:	e1a02007 	mov	r2, r7
  302f4c:	e1a00004 	mov	r0, r4
  302f50:	eb000b36 	bl	305c30 <__pow5mult>
  302f54:	e1a06000 	mov	r6, r0
  302f58:	e59d9014 	ldr	r9, [sp, #20]
  302f5c:	e1a01006 	mov	r1, r6
  302f60:	e1a02009 	mov	r2, r9
  302f64:	e1a00004 	mov	r0, r4
  302f68:	eb000ab4 	bl	305a40 <__multiply>
  302f6c:	e1a08000 	mov	r8, r0
  302f70:	e1a01009 	mov	r1, r9
  302f74:	e1a00004 	mov	r0, r4
  302f78:	eb0009f3 	bl	30574c <_Bfree>
  302f7c:	e58d8014 	str	r8, [sp, #20]
  302f80:	e59d3020 	ldr	r3, [sp, #32]
  302f84:	e0532007 	subs	r2, r3, r7
  302f88:	1a00037f 	bne	303d8c <_dtoa_r+0x1484>
  302f8c:	e1a00004 	mov	r0, r4
  302f90:	e3a01001 	mov	r1, #1
  302f94:	eb000aa0 	bl	305a1c <__i2b>
  302f98:	e59d3028 	ldr	r3, [sp, #40]	; 0x28
  302f9c:	e3530000 	cmp	r3, #0
  302fa0:	e1a07000 	mov	r7, r0
  302fa4:	da0001a8 	ble	30364c <_dtoa_r+0xd44>
  302fa8:	e1a01000 	mov	r1, r0
  302fac:	e1a02003 	mov	r2, r3
  302fb0:	e1a00004 	mov	r0, r4
  302fb4:	eb000b1d 	bl	305c30 <__pow5mult>
  302fb8:	e59d3088 	ldr	r3, [sp, #136]	; 0x88
  302fbc:	e3530001 	cmp	r3, #1
  302fc0:	e1a07000 	mov	r7, r0
  302fc4:	da000375 	ble	303da0 <_dtoa_r+0x1498>
  302fc8:	e3a08000 	mov	r8, #0
  302fcc:	e5973010 	ldr	r3, [r7, #16]
  302fd0:	e0873103 	add	r3, r7, r3, lsl #2
  302fd4:	e5930010 	ldr	r0, [r3, #16]
  302fd8:	eb000a53 	bl	30592c <__hi0bits>
  302fdc:	e2600020 	rsb	r0, r0, #32
  302fe0:	e59d300c 	ldr	r3, [sp, #12]
  302fe4:	e0800003 	add	r0, r0, r3
  302fe8:	e210001f 	ands	r0, r0, #31
  302fec:	0a0001fe 	beq	3037ec <_dtoa_r+0xee4>
  302ff0:	e2603020 	rsb	r3, r0, #32
  302ff4:	e3530004 	cmp	r3, #4
  302ff8:	da0003df 	ble	303f7c <_dtoa_r+0x1674>
  302ffc:	e260001c 	rsb	r0, r0, #28
  303000:	e59d3018 	ldr	r3, [sp, #24]
  303004:	e0833000 	add	r3, r3, r0
  303008:	e58d3018 	str	r3, [sp, #24]
  30300c:	e59d300c 	ldr	r3, [sp, #12]
  303010:	e0833000 	add	r3, r3, r0
  303014:	e58d300c 	str	r3, [sp, #12]
  303018:	e0855000 	add	r5, r5, r0
  30301c:	e59d3018 	ldr	r3, [sp, #24]
  303020:	e3530000 	cmp	r3, #0
  303024:	da000004 	ble	30303c <_dtoa_r+0x734>
  303028:	e59d1014 	ldr	r1, [sp, #20]
  30302c:	e1a02003 	mov	r2, r3
  303030:	e1a00004 	mov	r0, r4
  303034:	eb000b3e 	bl	305d34 <__lshift>
  303038:	e58d0014 	str	r0, [sp, #20]
  30303c:	e59d300c 	ldr	r3, [sp, #12]
  303040:	e3530000 	cmp	r3, #0
  303044:	da000004 	ble	30305c <_dtoa_r+0x754>
  303048:	e1a01007 	mov	r1, r7
  30304c:	e1a02003 	mov	r2, r3
  303050:	e1a00004 	mov	r0, r4
  303054:	eb000b36 	bl	305d34 <__lshift>
  303058:	e1a07000 	mov	r7, r0
  30305c:	e59d302c 	ldr	r3, [sp, #44]	; 0x2c
  303060:	e3530000 	cmp	r3, #0
  303064:	1a000261 	bne	3039f0 <_dtoa_r+0x10e8>
  303068:	e59d3088 	ldr	r3, [sp, #136]	; 0x88
  30306c:	e59d2010 	ldr	r2, [sp, #16]
  303070:	e3530002 	cmp	r3, #2
  303074:	c3a03001 	movgt	r3, #1
  303078:	d3a03000 	movle	r3, #0
  30307c:	e3520000 	cmp	r2, #0
  303080:	c3a03000 	movgt	r3, #0
  303084:	e3530000 	cmp	r3, #0
  303088:	0a000198 	beq	3036f0 <_dtoa_r+0xde8>
  30308c:	e59d3010 	ldr	r3, [sp, #16]
  303090:	e3530000 	cmp	r3, #0
  303094:	1a000167 	bne	303638 <_dtoa_r+0xd30>
  303098:	e1a01007 	mov	r1, r7
  30309c:	e3a02005 	mov	r2, #5
  3030a0:	e1a00004 	mov	r0, r4
  3030a4:	eb0009af 	bl	305768 <__multadd>
  3030a8:	e1a07000 	mov	r7, r0
  3030ac:	e59d0014 	ldr	r0, [sp, #20]
  3030b0:	e1a01007 	mov	r1, r7
  3030b4:	eb000b5c 	bl	305e2c <__mcmp>
  3030b8:	e3500000 	cmp	r0, #0
  3030bc:	da00015d 	ble	303638 <_dtoa_r+0xd30>
  3030c0:	e3a03031 	mov	r3, #49	; 0x31
  3030c4:	e59d2008 	ldr	r2, [sp, #8]
  3030c8:	e2822001 	add	r2, r2, #1
  3030cc:	e58d2008 	str	r2, [sp, #8]
  3030d0:	e59d201c 	ldr	r2, [sp, #28]
  3030d4:	e5c23000 	strb	r3, [r2]
  3030d8:	e2825001 	add	r5, r2, #1
  3030dc:	e1a01007 	mov	r1, r7
  3030e0:	e1a00004 	mov	r0, r4
  3030e4:	eb000998 	bl	30574c <_Bfree>
  3030e8:	e3560000 	cmp	r6, #0
  3030ec:	0a000002 	beq	3030fc <_dtoa_r+0x7f4>
  3030f0:	e1a01006 	mov	r1, r6
  3030f4:	e1a00004 	mov	r0, r4
  3030f8:	eb000993 	bl	30574c <_Bfree>
  3030fc:	e59d1014 	ldr	r1, [sp, #20]
  303100:	e1a00004 	mov	r0, r4
  303104:	eb000990 	bl	30574c <_Bfree>
  303108:	e3a02000 	mov	r2, #0
  30310c:	e59d1098 	ldr	r1, [sp, #152]	; 0x98
  303110:	e59d3008 	ldr	r3, [sp, #8]
  303114:	e5c52000 	strb	r2, [r5]
  303118:	e1510002 	cmp	r1, r2
  30311c:	e59d2090 	ldr	r2, [sp, #144]	; 0x90
  303120:	e2833001 	add	r3, r3, #1
  303124:	e5823000 	str	r3, [r2]
  303128:	0a0001b5 	beq	303804 <_dtoa_r+0xefc>
  30312c:	e59d001c 	ldr	r0, [sp, #28]
  303130:	e5815000 	str	r5, [r1]
  303134:	e28dd064 	add	sp, sp, #100	; 0x64
  303138:	e8bd4ff0 	pop	{r4, r5, r6, r7, r8, r9, sl, fp, lr}
  30313c:	e12fff1e 	bx	lr
  303140:	e3a03000 	mov	r3, #0
  303144:	e59d2018 	ldr	r2, [sp, #24]
  303148:	e58d3028 	str	r3, [sp, #40]	; 0x28
  30314c:	e59d3008 	ldr	r3, [sp, #8]
  303150:	e0632002 	rsb	r2, r3, r2
  303154:	e2633000 	rsb	r3, r3, #0
  303158:	e58d2018 	str	r2, [sp, #24]
  30315c:	e58d3020 	str	r3, [sp, #32]
  303160:	eafffe8d 	b	302b9c <_dtoa_r+0x294>
  303164:	e59d0008 	ldr	r0, [sp, #8]
  303168:	eb0018e0 	bl	3094f0 <__aeabi_i2d>
  30316c:	e1a03007 	mov	r3, r7
  303170:	e1a02006 	mov	r2, r6
  303174:	eb001a6e 	bl	309b34 <__aeabi_dcmpeq>
  303178:	e3500000 	cmp	r0, #0
  30317c:	059d3008 	ldreq	r3, [sp, #8]
  303180:	02433001 	subeq	r3, r3, #1
  303184:	058d3008 	streq	r3, [sp, #8]
  303188:	eafffe5e 	b	302b08 <_dtoa_r+0x200>
  30318c:	e3a05000 	mov	r5, #0
  303190:	e1a00004 	mov	r0, r4
  303194:	e5845044 	str	r5, [r4, #68]	; 0x44
  303198:	e1a01005 	mov	r1, r5
  30319c:	eb000946 	bl	3056bc <_Balloc>
  3031a0:	e59d2008 	ldr	r2, [sp, #8]
  3031a4:	e59d305c 	ldr	r3, [sp, #92]	; 0x5c
  3031a8:	e352000e 	cmp	r2, #14
  3031ac:	c3a02000 	movgt	r2, #0
  3031b0:	d3a02001 	movle	r2, #1
  3031b4:	e1530005 	cmp	r3, r5
  3031b8:	b3a02000 	movlt	r2, #0
  3031bc:	e1520005 	cmp	r2, r5
  3031c0:	e58d001c 	str	r0, [sp, #28]
  3031c4:	e5840040 	str	r0, [r4, #64]	; 0x40
  3031c8:	1a000371 	bne	303f94 <_dtoa_r+0x168c>
  3031cc:	e3e01000 	mvn	r1, #0
  3031d0:	e58d208c 	str	r2, [sp, #140]	; 0x8c
  3031d4:	e3a02001 	mov	r2, #1
  3031d8:	e58d1010 	str	r1, [sp, #16]
  3031dc:	e58d1040 	str	r1, [sp, #64]	; 0x40
  3031e0:	e58d2024 	str	r2, [sp, #36]	; 0x24
  3031e4:	e59d2088 	ldr	r2, [sp, #136]	; 0x88
  3031e8:	e3520001 	cmp	r2, #1
  3031ec:	da0002f5 	ble	303dc8 <_dtoa_r+0x14c0>
  3031f0:	e59d3010 	ldr	r3, [sp, #16]
  3031f4:	e2437001 	sub	r7, r3, #1
  3031f8:	e59d3020 	ldr	r3, [sp, #32]
  3031fc:	e1530007 	cmp	r3, r7
  303200:	b59d3020 	ldrlt	r3, [sp, #32]
  303204:	b59d2028 	ldrlt	r2, [sp, #40]	; 0x28
  303208:	b0633007 	rsblt	r3, r3, r7
  30320c:	b0823003 	addlt	r3, r2, r3
  303210:	a0677003 	rsbge	r7, r7, r3
  303214:	b58d3028 	strlt	r3, [sp, #40]	; 0x28
  303218:	e59d3010 	ldr	r3, [sp, #16]
  30321c:	b58d7020 	strlt	r7, [sp, #32]
  303220:	b3a07000 	movlt	r7, #0
  303224:	e3530000 	cmp	r3, #0
  303228:	b59d3018 	ldrlt	r3, [sp, #24]
  30322c:	b59d2010 	ldrlt	r2, [sp, #16]
  303230:	b0625003 	rsblt	r5, r2, r3
  303234:	b3a03000 	movlt	r3, #0
  303238:	a59d5018 	ldrge	r5, [sp, #24]
  30323c:	a59d3010 	ldrge	r3, [sp, #16]
  303240:	e59d2018 	ldr	r2, [sp, #24]
  303244:	e0822003 	add	r2, r2, r3
  303248:	e58d2018 	str	r2, [sp, #24]
  30324c:	e59d200c 	ldr	r2, [sp, #12]
  303250:	e1a00004 	mov	r0, r4
  303254:	e0823003 	add	r3, r2, r3
  303258:	e3a01001 	mov	r1, #1
  30325c:	e58d300c 	str	r3, [sp, #12]
  303260:	eb0009ed 	bl	305a1c <__i2b>
  303264:	e1a06000 	mov	r6, r0
  303268:	eaffff20 	b	302ef0 <_dtoa_r+0x5e8>
  30326c:	e3a03001 	mov	r3, #1
  303270:	e58d3024 	str	r3, [sp, #36]	; 0x24
  303274:	e59d308c 	ldr	r3, [sp, #140]	; 0x8c
  303278:	e3530000 	cmp	r3, #0
  30327c:	da000283 	ble	303c90 <_dtoa_r+0x1388>
  303280:	e353000e 	cmp	r3, #14
  303284:	83a05000 	movhi	r5, #0
  303288:	92055001 	andls	r5, r5, #1
  30328c:	e1a00003 	mov	r0, r3
  303290:	e58d3040 	str	r3, [sp, #64]	; 0x40
  303294:	e58d3010 	str	r3, [sp, #16]
  303298:	e3a01000 	mov	r1, #0
  30329c:	e3500017 	cmp	r0, #23
  3032a0:	e5841044 	str	r1, [r4, #68]	; 0x44
  3032a4:	9a000008 	bls	3032cc <_dtoa_r+0x9c4>
  3032a8:	e3a02001 	mov	r2, #1
  3032ac:	e3a03004 	mov	r3, #4
  3032b0:	e1a01002 	mov	r1, r2
  3032b4:	e1a03083 	lsl	r3, r3, #1
  3032b8:	e2832014 	add	r2, r3, #20
  3032bc:	e1520000 	cmp	r2, r0
  3032c0:	e2812001 	add	r2, r1, #1
  3032c4:	9afffff9 	bls	3032b0 <_dtoa_r+0x9a8>
  3032c8:	e5841044 	str	r1, [r4, #68]	; 0x44
  3032cc:	e1a00004 	mov	r0, r4
  3032d0:	eb0008f9 	bl	3056bc <_Balloc>
  3032d4:	e3550000 	cmp	r5, #0
  3032d8:	e58d001c 	str	r0, [sp, #28]
  3032dc:	e5840040 	str	r0, [r4, #64]	; 0x40
  3032e0:	0afffe5f 	beq	302c64 <_dtoa_r+0x35c>
  3032e4:	e59d1008 	ldr	r1, [sp, #8]
  3032e8:	e3510000 	cmp	r1, #0
  3032ec:	e58da038 	str	sl, [sp, #56]	; 0x38
  3032f0:	e58db03c 	str	fp, [sp, #60]	; 0x3c
  3032f4:	da000148 	ble	30381c <_dtoa_r+0xf14>
  3032f8:	e51f2468 	ldr	r2, [pc, #-1128]	; 302e98 <_dtoa_r+0x590>
  3032fc:	e201300f 	and	r3, r1, #15
  303300:	e1a05241 	asr	r5, r1, #4
  303304:	e0823183 	add	r3, r2, r3, lsl #3
  303308:	e3150010 	tst	r5, #16
  30330c:	e89300c0 	ldm	r3, {r6, r7}
  303310:	0a000137 	beq	3037f4 <_dtoa_r+0xeec>
  303314:	e51f3488 	ldr	r3, [pc, #-1160]	; 302e94 <_dtoa_r+0x58c>
  303318:	e1a0000a 	mov	r0, sl
  30331c:	e1a0100b 	mov	r1, fp
  303320:	e2833020 	add	r3, r3, #32
  303324:	e893000c 	ldm	r3, {r2, r3}
  303328:	eb00194b 	bl	30985c <__aeabi_ddiv>
  30332c:	e3a08003 	mov	r8, #3
  303330:	e1a0a000 	mov	sl, r0
  303334:	e1a0b001 	mov	fp, r1
  303338:	e205500f 	and	r5, r5, #15
  30333c:	e3550000 	cmp	r5, #0
  303340:	0a00000c 	beq	303378 <_dtoa_r+0xa70>
  303344:	e1a00006 	mov	r0, r6
  303348:	e1a01007 	mov	r1, r7
  30334c:	e51f94c0 	ldr	r9, [pc, #-1216]	; 302e94 <_dtoa_r+0x58c>
  303350:	e3150001 	tst	r5, #1
  303354:	0a000002 	beq	303364 <_dtoa_r+0xa5c>
  303358:	e899000c 	ldm	r9, {r2, r3}
  30335c:	eb00189a 	bl	3095cc <__aeabi_dmul>
  303360:	e2888001 	add	r8, r8, #1
  303364:	e1b050c5 	asrs	r5, r5, #1
  303368:	e2899008 	add	r9, r9, #8
  30336c:	1afffff7 	bne	303350 <_dtoa_r+0xa48>
  303370:	e1a06000 	mov	r6, r0
  303374:	e1a07001 	mov	r7, r1
  303378:	e1a0000a 	mov	r0, sl
  30337c:	e1a0100b 	mov	r1, fp
  303380:	e1a02006 	mov	r2, r6
  303384:	e1a03007 	mov	r3, r7
  303388:	eb001933 	bl	30985c <__aeabi_ddiv>
  30338c:	e58d0030 	str	r0, [sp, #48]	; 0x30
  303390:	e58d1034 	str	r1, [sp, #52]	; 0x34
  303394:	e59d302c 	ldr	r3, [sp, #44]	; 0x2c
  303398:	e3530000 	cmp	r3, #0
  30339c:	0a000006 	beq	3033bc <_dtoa_r+0xab4>
  3033a0:	e28d1030 	add	r1, sp, #48	; 0x30
  3033a4:	e8910003 	ldm	r1, {r0, r1}
  3033a8:	e3a02000 	mov	r2, #0
  3033ac:	e51f3528 	ldr	r3, [pc, #-1320]	; 302e8c <_dtoa_r+0x584>
  3033b0:	eb0019e5 	bl	309b4c <__aeabi_dcmplt>
  3033b4:	e3500000 	cmp	r0, #0
  3033b8:	1a000246 	bne	303cd8 <_dtoa_r+0x13d0>
  3033bc:	e1a00008 	mov	r0, r8
  3033c0:	eb00184a 	bl	3094f0 <__aeabi_i2d>
  3033c4:	e28d3030 	add	r3, sp, #48	; 0x30
  3033c8:	e893000c 	ldm	r3, {r2, r3}
  3033cc:	eb00187e 	bl	3095cc <__aeabi_dmul>
  3033d0:	e51f3534 	ldr	r3, [pc, #-1332]	; 302ea4 <_dtoa_r+0x59c>
  3033d4:	e3a02000 	mov	r2, #0
  3033d8:	eb001777 	bl	3091bc <__adddf3>
  3033dc:	e59d3010 	ldr	r3, [sp, #16]
  3033e0:	e3530000 	cmp	r3, #0
  3033e4:	e1a06000 	mov	r6, r0
  3033e8:	e241750d 	sub	r7, r1, #54525952	; 0x3400000
  3033ec:	0a0000a9 	beq	303698 <_dtoa_r+0xd90>
  3033f0:	e59d3008 	ldr	r3, [sp, #8]
  3033f4:	e59dc010 	ldr	ip, [sp, #16]
  3033f8:	e58d3050 	str	r3, [sp, #80]	; 0x50
  3033fc:	e59d3024 	ldr	r3, [sp, #36]	; 0x24
  303400:	e3530000 	cmp	r3, #0
  303404:	0a000123 	beq	303898 <_dtoa_r+0xf90>
  303408:	e51f3578 	ldr	r3, [pc, #-1400]	; 302e98 <_dtoa_r+0x590>
  30340c:	e083318c 	add	r3, r3, ip, lsl #3
  303410:	e913000c 	ldmdb	r3, {r2, r3}
  303414:	e3a00000 	mov	r0, #0
  303418:	e51f1584 	ldr	r1, [pc, #-1412]	; 302e9c <_dtoa_r+0x594>
  30341c:	e58dc048 	str	ip, [sp, #72]	; 0x48
  303420:	eb00190d 	bl	30985c <__aeabi_ddiv>
  303424:	e1a02006 	mov	r2, r6
  303428:	e1a03007 	mov	r3, r7
  30342c:	eb001761 	bl	3091b8 <__aeabi_dsub>
  303430:	e28d7030 	add	r7, sp, #48	; 0x30
  303434:	e89700c0 	ldm	r7, {r6, r7}
  303438:	e1a0a000 	mov	sl, r0
  30343c:	e1a0b001 	mov	fp, r1
  303440:	e1a00006 	mov	r0, r6
  303444:	e1a01007 	mov	r1, r7
  303448:	eb0019d7 	bl	309bac <__aeabi_d2iz>
  30344c:	e1a05000 	mov	r5, r0
  303450:	eb001826 	bl	3094f0 <__aeabi_i2d>
  303454:	e1a02000 	mov	r2, r0
  303458:	e1a03001 	mov	r3, r1
  30345c:	e1a00006 	mov	r0, r6
  303460:	e1a01007 	mov	r1, r7
  303464:	eb001753 	bl	3091b8 <__aeabi_dsub>
  303468:	e1a08000 	mov	r8, r0
  30346c:	e1a09001 	mov	r9, r1
  303470:	e2855030 	add	r5, r5, #48	; 0x30
  303474:	e59d701c 	ldr	r7, [sp, #28]
  303478:	e20560ff 	and	r6, r5, #255	; 0xff
  30347c:	e5c76000 	strb	r6, [r7]
  303480:	e1a0000a 	mov	r0, sl
  303484:	e1a0100b 	mov	r1, fp
  303488:	e1a02008 	mov	r2, r8
  30348c:	e1a03009 	mov	r3, r9
  303490:	eb0019bf 	bl	309b94 <__aeabi_dcmpgt>
  303494:	e3500000 	cmp	r0, #0
  303498:	e2875001 	add	r5, r7, #1
  30349c:	1a000150 	bne	3039e4 <_dtoa_r+0x10dc>
  3034a0:	e1a02008 	mov	r2, r8
  3034a4:	e1a03009 	mov	r3, r9
  3034a8:	e3a00000 	mov	r0, #0
  3034ac:	e51f1628 	ldr	r1, [pc, #-1576]	; 302e8c <_dtoa_r+0x584>
  3034b0:	eb001740 	bl	3091b8 <__aeabi_dsub>
  3034b4:	e1a02000 	mov	r2, r0
  3034b8:	e1a03001 	mov	r3, r1
  3034bc:	e1a0000a 	mov	r0, sl
  3034c0:	e1a0100b 	mov	r1, fp
  3034c4:	eb0019b2 	bl	309b94 <__aeabi_dcmpgt>
  3034c8:	e3500000 	cmp	r0, #0
  3034cc:	1afffe5c 	bne	302e44 <_dtoa_r+0x53c>
  3034d0:	e59dc048 	ldr	ip, [sp, #72]	; 0x48
  3034d4:	e35c0001 	cmp	ip, #1
  3034d8:	da0000cc 	ble	303810 <_dtoa_r+0xf08>
  3034dc:	e087700c 	add	r7, r7, ip
  3034e0:	e58d7030 	str	r7, [sp, #48]	; 0x30
  3034e4:	e58d4048 	str	r4, [sp, #72]	; 0x48
  3034e8:	ea00000c 	b	303520 <_dtoa_r+0xc18>
  3034ec:	e1a02008 	mov	r2, r8
  3034f0:	e1a03009 	mov	r3, r9
  3034f4:	e3a00000 	mov	r0, #0
  3034f8:	e51f1674 	ldr	r1, [pc, #-1652]	; 302e8c <_dtoa_r+0x584>
  3034fc:	eb00172d 	bl	3091b8 <__aeabi_dsub>
  303500:	e1a0200a 	mov	r2, sl
  303504:	e1a0300b 	mov	r3, fp
  303508:	eb00198f 	bl	309b4c <__aeabi_dcmplt>
  30350c:	e3500000 	cmp	r0, #0
  303510:	1a000250 	bne	303e58 <_dtoa_r+0x1550>
  303514:	e59d3030 	ldr	r3, [sp, #48]	; 0x30
  303518:	e1550003 	cmp	r5, r3
  30351c:	0a0000ba 	beq	30380c <_dtoa_r+0xf04>
  303520:	e1a0000a 	mov	r0, sl
  303524:	e1a0100b 	mov	r1, fp
  303528:	e3a02000 	mov	r2, #0
  30352c:	e51f3694 	ldr	r3, [pc, #-1684]	; 302ea0 <_dtoa_r+0x598>
  303530:	eb001825 	bl	3095cc <__aeabi_dmul>
  303534:	e3a02000 	mov	r2, #0
  303538:	e51f36a0 	ldr	r3, [pc, #-1696]	; 302ea0 <_dtoa_r+0x598>
  30353c:	e1a0a000 	mov	sl, r0
  303540:	e1a0b001 	mov	fp, r1
  303544:	e1a00008 	mov	r0, r8
  303548:	e1a01009 	mov	r1, r9
  30354c:	eb00181e 	bl	3095cc <__aeabi_dmul>
  303550:	e1a06000 	mov	r6, r0
  303554:	e1a07001 	mov	r7, r1
  303558:	eb001993 	bl	309bac <__aeabi_d2iz>
  30355c:	e1a04000 	mov	r4, r0
  303560:	eb0017e2 	bl	3094f0 <__aeabi_i2d>
  303564:	e1a02000 	mov	r2, r0
  303568:	e1a03001 	mov	r3, r1
  30356c:	e1a00006 	mov	r0, r6
  303570:	e1a01007 	mov	r1, r7
  303574:	eb00170f 	bl	3091b8 <__aeabi_dsub>
  303578:	e2844030 	add	r4, r4, #48	; 0x30
  30357c:	e20460ff 	and	r6, r4, #255	; 0xff
  303580:	e4c56001 	strb	r6, [r5], #1
  303584:	e1a0200a 	mov	r2, sl
  303588:	e1a0300b 	mov	r3, fp
  30358c:	e1a08000 	mov	r8, r0
  303590:	e1a09001 	mov	r9, r1
  303594:	eb00196c 	bl	309b4c <__aeabi_dcmplt>
  303598:	e3500000 	cmp	r0, #0
  30359c:	0affffd2 	beq	3034ec <_dtoa_r+0xbe4>
  3035a0:	e59d3050 	ldr	r3, [sp, #80]	; 0x50
  3035a4:	e59d4048 	ldr	r4, [sp, #72]	; 0x48
  3035a8:	e58d3008 	str	r3, [sp, #8]
  3035ac:	eafffed2 	b	3030fc <_dtoa_r+0x7f4>
  3035b0:	e3a03000 	mov	r3, #0
  3035b4:	e58d3024 	str	r3, [sp, #36]	; 0x24
  3035b8:	e59d308c 	ldr	r3, [sp, #140]	; 0x8c
  3035bc:	e59d2008 	ldr	r2, [sp, #8]
  3035c0:	e0833002 	add	r3, r3, r2
  3035c4:	e58d3040 	str	r3, [sp, #64]	; 0x40
  3035c8:	e2833001 	add	r3, r3, #1
  3035cc:	e3530000 	cmp	r3, #0
  3035d0:	e58d3010 	str	r3, [sp, #16]
  3035d4:	da0001b5 	ble	303cb0 <_dtoa_r+0x13a8>
  3035d8:	e59d3010 	ldr	r3, [sp, #16]
  3035dc:	e353000e 	cmp	r3, #14
  3035e0:	83a05000 	movhi	r5, #0
  3035e4:	92055001 	andls	r5, r5, #1
  3035e8:	e1a00003 	mov	r0, r3
  3035ec:	eaffff29 	b	303298 <_dtoa_r+0x990>
  3035f0:	e3a03000 	mov	r3, #0
  3035f4:	e58d3024 	str	r3, [sp, #36]	; 0x24
  3035f8:	eaffff1d 	b	303274 <_dtoa_r+0x96c>
  3035fc:	e59d3010 	ldr	r3, [sp, #16]
  303600:	e3530000 	cmp	r3, #0
  303604:	1a00021f 	bne	303e88 <_dtoa_r+0x1580>
  303608:	e3a02000 	mov	r2, #0
  30360c:	e51f3784 	ldr	r3, [pc, #-1924]	; 302e90 <_dtoa_r+0x588>
  303610:	e1a00008 	mov	r0, r8
  303614:	e1a01009 	mov	r1, r9
  303618:	eb0017eb 	bl	3095cc <__aeabi_dmul>
  30361c:	e1a0200a 	mov	r2, sl
  303620:	e1a0300b 	mov	r3, fp
  303624:	eb001954 	bl	309b7c <__aeabi_dcmpge>
  303628:	e59d7010 	ldr	r7, [sp, #16]
  30362c:	e3500000 	cmp	r0, #0
  303630:	e1a06007 	mov	r6, r7
  303634:	0afffea1 	beq	3030c0 <_dtoa_r+0x7b8>
  303638:	e59d308c 	ldr	r3, [sp, #140]	; 0x8c
  30363c:	e1e03003 	mvn	r3, r3
  303640:	e59d501c 	ldr	r5, [sp, #28]
  303644:	e58d3008 	str	r3, [sp, #8]
  303648:	eafffea3 	b	3030dc <_dtoa_r+0x7d4>
  30364c:	e59d3088 	ldr	r3, [sp, #136]	; 0x88
  303650:	e3530001 	cmp	r3, #1
  303654:	da000104 	ble	303a6c <_dtoa_r+0x1164>
  303658:	e3a08000 	mov	r8, #0
  30365c:	e59d3028 	ldr	r3, [sp, #40]	; 0x28
  303660:	e3530000 	cmp	r3, #0
  303664:	03a00001 	moveq	r0, #1
  303668:	0afffe5c 	beq	302fe0 <_dtoa_r+0x6d8>
  30366c:	eafffe56 	b	302fcc <_dtoa_r+0x6c4>
  303670:	e1a00008 	mov	r0, r8
  303674:	eb00179d 	bl	3094f0 <__aeabi_i2d>
  303678:	e28d3030 	add	r3, sp, #48	; 0x30
  30367c:	e893000c 	ldm	r3, {r2, r3}
  303680:	eb0017d1 	bl	3095cc <__aeabi_dmul>
  303684:	e3a02000 	mov	r2, #0
  303688:	e51f37ec 	ldr	r3, [pc, #-2028]	; 302ea4 <_dtoa_r+0x59c>
  30368c:	eb0016ca 	bl	3091bc <__adddf3>
  303690:	e1a06000 	mov	r6, r0
  303694:	e241750d 	sub	r7, r1, #54525952	; 0x3400000
  303698:	e3a02000 	mov	r2, #0
  30369c:	e51f3814 	ldr	r3, [pc, #-2068]	; 302e90 <_dtoa_r+0x588>
  3036a0:	e28d1030 	add	r1, sp, #48	; 0x30
  3036a4:	e8910003 	ldm	r1, {r0, r1}
  3036a8:	eb0016c2 	bl	3091b8 <__aeabi_dsub>
  3036ac:	e1a02006 	mov	r2, r6
  3036b0:	e1a03007 	mov	r3, r7
  3036b4:	e1a08000 	mov	r8, r0
  3036b8:	e1a09001 	mov	r9, r1
  3036bc:	eb001934 	bl	309b94 <__aeabi_dcmpgt>
  3036c0:	e2505000 	subs	r5, r0, #0
  3036c4:	1a000070 	bne	30388c <_dtoa_r+0xf84>
  3036c8:	e1a02006 	mov	r2, r6
  3036cc:	e2873102 	add	r3, r7, #-2147483648	; 0x80000000
  3036d0:	e1a00008 	mov	r0, r8
  3036d4:	e1a01009 	mov	r1, r9
  3036d8:	eb00191b 	bl	309b4c <__aeabi_dcmplt>
  3036dc:	e3500000 	cmp	r0, #0
  3036e0:	0a00004a 	beq	303810 <_dtoa_r+0xf08>
  3036e4:	e1a07005 	mov	r7, r5
  3036e8:	e1a06005 	mov	r6, r5
  3036ec:	eaffffd1 	b	303638 <_dtoa_r+0xd30>
  3036f0:	e59d3024 	ldr	r3, [sp, #36]	; 0x24
  3036f4:	e3530000 	cmp	r3, #0
  3036f8:	1a0000ff 	bne	303afc <_dtoa_r+0x11f4>
  3036fc:	e59da01c 	ldr	sl, [sp, #28]
  303700:	e59d8014 	ldr	r8, [sp, #20]
  303704:	e1a0500a 	mov	r5, sl
  303708:	e59d9010 	ldr	r9, [sp, #16]
  30370c:	ea000005 	b	303728 <_dtoa_r+0xe20>
  303710:	e1a01008 	mov	r1, r8
  303714:	e1a00004 	mov	r0, r4
  303718:	e3a0200a 	mov	r2, #10
  30371c:	e3a03000 	mov	r3, #0
  303720:	eb000810 	bl	305768 <__multadd>
  303724:	e1a08000 	mov	r8, r0
  303728:	e1a00008 	mov	r0, r8
  30372c:	e1a01007 	mov	r1, r7
  303730:	ebfffbfe 	bl	302730 <quorem>
  303734:	e2800030 	add	r0, r0, #48	; 0x30
  303738:	e4c50001 	strb	r0, [r5], #1
  30373c:	e06a3005 	rsb	r3, sl, r5
  303740:	e1530009 	cmp	r3, r9
  303744:	bafffff1 	blt	303710 <_dtoa_r+0xe08>
  303748:	e59d501c 	ldr	r5, [sp, #28]
  30374c:	e59d3010 	ldr	r3, [sp, #16]
  303750:	e1a09000 	mov	r9, r0
  303754:	e3530001 	cmp	r3, #1
  303758:	a0855003 	addge	r5, r5, r3
  30375c:	b2855001 	addlt	r5, r5, #1
  303760:	e3a0b000 	mov	fp, #0
  303764:	e58d8014 	str	r8, [sp, #20]
  303768:	e59d1014 	ldr	r1, [sp, #20]
  30376c:	e3a02001 	mov	r2, #1
  303770:	e1a00004 	mov	r0, r4
  303774:	eb00096e 	bl	305d34 <__lshift>
  303778:	e1a01007 	mov	r1, r7
  30377c:	e58d0014 	str	r0, [sp, #20]
  303780:	eb0009a9 	bl	305e2c <__mcmp>
  303784:	e3500000 	cmp	r0, #0
  303788:	da0001b4 	ble	303e60 <_dtoa_r+0x1558>
  30378c:	e5552001 	ldrb	r2, [r5, #-1]
  303790:	e2453001 	sub	r3, r5, #1
  303794:	e59d101c 	ldr	r1, [sp, #28]
  303798:	ea000002 	b	3037a8 <_dtoa_r+0xea0>
  30379c:	e1530001 	cmp	r3, r1
  3037a0:	0a000181 	beq	303dac <_dtoa_r+0x14a4>
  3037a4:	e5732001 	ldrb	r2, [r3, #-1]!
  3037a8:	e3520039 	cmp	r2, #57	; 0x39
  3037ac:	e2835001 	add	r5, r3, #1
  3037b0:	0afffff9 	beq	30379c <_dtoa_r+0xe94>
  3037b4:	e2822001 	add	r2, r2, #1
  3037b8:	e5c32000 	strb	r2, [r3]
  3037bc:	e1a01007 	mov	r1, r7
  3037c0:	e1a00004 	mov	r0, r4
  3037c4:	eb0007e0 	bl	30574c <_Bfree>
  3037c8:	e3560000 	cmp	r6, #0
  3037cc:	0afffe4a 	beq	3030fc <_dtoa_r+0x7f4>
  3037d0:	e15b0006 	cmp	fp, r6
  3037d4:	135b0000 	cmpne	fp, #0
  3037d8:	0afffe44 	beq	3030f0 <_dtoa_r+0x7e8>
  3037dc:	e1a0100b 	mov	r1, fp
  3037e0:	e1a00004 	mov	r0, r4
  3037e4:	eb0007d8 	bl	30574c <_Bfree>
  3037e8:	eafffe40 	b	3030f0 <_dtoa_r+0x7e8>
  3037ec:	e3a0001c 	mov	r0, #28
  3037f0:	eafffe02 	b	303000 <_dtoa_r+0x6f8>
  3037f4:	e28db038 	add	fp, sp, #56	; 0x38
  3037f8:	e89b0c00 	ldm	fp, {sl, fp}
  3037fc:	e3a08002 	mov	r8, #2
  303800:	eafffecd 	b	30333c <_dtoa_r+0xa34>
  303804:	e59d001c 	ldr	r0, [sp, #28]
  303808:	eafffc6c 	b	3029c0 <_dtoa_r+0xb8>
  30380c:	e59d4048 	ldr	r4, [sp, #72]	; 0x48
  303810:	e28db038 	add	fp, sp, #56	; 0x38
  303814:	e89b0c00 	ldm	fp, {sl, fp}
  303818:	eafffd11 	b	302c64 <_dtoa_r+0x35c>
  30381c:	e59d3008 	ldr	r3, [sp, #8]
  303820:	e2635000 	rsb	r5, r3, #0
  303824:	e3550000 	cmp	r5, #0
  303828:	0a00014a 	beq	303d58 <_dtoa_r+0x1450>
  30382c:	e51f399c 	ldr	r3, [pc, #-2460]	; 302e98 <_dtoa_r+0x590>
  303830:	e205200f 	and	r2, r5, #15
  303834:	e0833182 	add	r3, r3, r2, lsl #3
  303838:	e893000c 	ldm	r3, {r2, r3}
  30383c:	e28d1038 	add	r1, sp, #56	; 0x38
  303840:	e8910003 	ldm	r1, {r0, r1}
  303844:	eb001760 	bl	3095cc <__aeabi_dmul>
  303848:	e1b05245 	asrs	r5, r5, #4
  30384c:	e58d0030 	str	r0, [sp, #48]	; 0x30
  303850:	e58d1034 	str	r1, [sp, #52]	; 0x34
  303854:	e3a08002 	mov	r8, #2
  303858:	0afffecd 	beq	303394 <_dtoa_r+0xa8c>
  30385c:	e51f69d0 	ldr	r6, [pc, #-2512]	; 302e94 <_dtoa_r+0x58c>
  303860:	e3150001 	tst	r5, #1
  303864:	0a000002 	beq	303874 <_dtoa_r+0xf6c>
  303868:	e896000c 	ldm	r6, {r2, r3}
  30386c:	eb001756 	bl	3095cc <__aeabi_dmul>
  303870:	e2888001 	add	r8, r8, #1
  303874:	e1b050c5 	asrs	r5, r5, #1
  303878:	e2866008 	add	r6, r6, #8
  30387c:	1afffff7 	bne	303860 <_dtoa_r+0xf58>
  303880:	e58d0030 	str	r0, [sp, #48]	; 0x30
  303884:	e58d1034 	str	r1, [sp, #52]	; 0x34
  303888:	eafffec1 	b	303394 <_dtoa_r+0xa8c>
  30388c:	e3a07000 	mov	r7, #0
  303890:	e1a06007 	mov	r6, r7
  303894:	eafffe09 	b	3030c0 <_dtoa_r+0x7b8>
  303898:	e51f1a08 	ldr	r1, [pc, #-2568]	; 302e98 <_dtoa_r+0x590>
  30389c:	e24cb001 	sub	fp, ip, #1
  3038a0:	e081118b 	add	r1, r1, fp, lsl #3
  3038a4:	e1a02006 	mov	r2, r6
  3038a8:	e1a03007 	mov	r3, r7
  3038ac:	e8910003 	ldm	r1, {r0, r1}
  3038b0:	e58dc054 	str	ip, [sp, #84]	; 0x54
  3038b4:	eb001744 	bl	3095cc <__aeabi_dmul>
  3038b8:	e28d7030 	add	r7, sp, #48	; 0x30
  3038bc:	e89700c0 	ldm	r7, {r6, r7}
  3038c0:	e58d0048 	str	r0, [sp, #72]	; 0x48
  3038c4:	e58d104c 	str	r1, [sp, #76]	; 0x4c
  3038c8:	e1a01007 	mov	r1, r7
  3038cc:	e1a00006 	mov	r0, r6
  3038d0:	eb0018b5 	bl	309bac <__aeabi_d2iz>
  3038d4:	e1a05000 	mov	r5, r0
  3038d8:	eb001704 	bl	3094f0 <__aeabi_i2d>
  3038dc:	e1a03001 	mov	r3, r1
  3038e0:	e1a02000 	mov	r2, r0
  3038e4:	e1a01007 	mov	r1, r7
  3038e8:	e1a00006 	mov	r0, r6
  3038ec:	eb001631 	bl	3091b8 <__aeabi_dsub>
  3038f0:	e59dc054 	ldr	ip, [sp, #84]	; 0x54
  3038f4:	e59d301c 	ldr	r3, [sp, #28]
  3038f8:	e2855030 	add	r5, r5, #48	; 0x30
  3038fc:	e35c0001 	cmp	ip, #1
  303900:	e5c35000 	strb	r5, [r3]
  303904:	e1a08000 	mov	r8, r0
  303908:	e1a09001 	mov	r9, r1
  30390c:	e2835001 	add	r5, r3, #1
  303910:	0a000019 	beq	30397c <_dtoa_r+0x1074>
  303914:	e59d301c 	ldr	r3, [sp, #28]
  303918:	e083700c 	add	r7, r3, ip
  30391c:	e1a0a005 	mov	sl, r5
  303920:	e1a08005 	mov	r8, r5
  303924:	e1a09007 	mov	r9, r7
  303928:	e3a02000 	mov	r2, #0
  30392c:	e51f3a94 	ldr	r3, [pc, #-2708]	; 302ea0 <_dtoa_r+0x598>
  303930:	eb001725 	bl	3095cc <__aeabi_dmul>
  303934:	e1a07001 	mov	r7, r1
  303938:	e1a06000 	mov	r6, r0
  30393c:	eb00189a 	bl	309bac <__aeabi_d2iz>
  303940:	e1a05000 	mov	r5, r0
  303944:	eb0016e9 	bl	3094f0 <__aeabi_i2d>
  303948:	e2855030 	add	r5, r5, #48	; 0x30
  30394c:	e1a02000 	mov	r2, r0
  303950:	e1a03001 	mov	r3, r1
  303954:	e1a00006 	mov	r0, r6
  303958:	e1a01007 	mov	r1, r7
  30395c:	eb001615 	bl	3091b8 <__aeabi_dsub>
  303960:	e4ca5001 	strb	r5, [sl], #1
  303964:	e15a0009 	cmp	sl, r9
  303968:	1affffee 	bne	303928 <_dtoa_r+0x1020>
  30396c:	e1a05008 	mov	r5, r8
  303970:	e1a09001 	mov	r9, r1
  303974:	e1a08000 	mov	r8, r0
  303978:	e085500b 	add	r5, r5, fp
  30397c:	e3a02000 	mov	r2, #0
  303980:	e51f3aec 	ldr	r3, [pc, #-2796]	; 302e9c <_dtoa_r+0x594>
  303984:	e28d1048 	add	r1, sp, #72	; 0x48
  303988:	e8910003 	ldm	r1, {r0, r1}
  30398c:	eb00160a 	bl	3091bc <__adddf3>
  303990:	e1a02008 	mov	r2, r8
  303994:	e1a03009 	mov	r3, r9
  303998:	eb00186b 	bl	309b4c <__aeabi_dcmplt>
  30399c:	e3500000 	cmp	r0, #0
  3039a0:	1afffd26 	bne	302e40 <_dtoa_r+0x538>
  3039a4:	e28d3048 	add	r3, sp, #72	; 0x48
  3039a8:	e893000c 	ldm	r3, {r2, r3}
  3039ac:	e3a00000 	mov	r0, #0
  3039b0:	e51f1b1c 	ldr	r1, [pc, #-2844]	; 302e9c <_dtoa_r+0x594>
  3039b4:	eb0015ff 	bl	3091b8 <__aeabi_dsub>
  3039b8:	e1a02008 	mov	r2, r8
  3039bc:	e1a03009 	mov	r3, r9
  3039c0:	eb001873 	bl	309b94 <__aeabi_dcmpgt>
  3039c4:	e3500000 	cmp	r0, #0
  3039c8:	1a000001 	bne	3039d4 <_dtoa_r+0x10cc>
  3039cc:	eaffff8f 	b	303810 <_dtoa_r+0xf08>
  3039d0:	e1a05003 	mov	r5, r3
  3039d4:	e5553001 	ldrb	r3, [r5, #-1]
  3039d8:	e3530030 	cmp	r3, #48	; 0x30
  3039dc:	e2453001 	sub	r3, r5, #1
  3039e0:	0afffffa 	beq	3039d0 <_dtoa_r+0x10c8>
  3039e4:	e59d3050 	ldr	r3, [sp, #80]	; 0x50
  3039e8:	e58d3008 	str	r3, [sp, #8]
  3039ec:	eafffdc2 	b	3030fc <_dtoa_r+0x7f4>
  3039f0:	e59d0014 	ldr	r0, [sp, #20]
  3039f4:	e1a01007 	mov	r1, r7
  3039f8:	eb00090b 	bl	305e2c <__mcmp>
  3039fc:	e3500000 	cmp	r0, #0
  303a00:	aafffd98 	bge	303068 <_dtoa_r+0x760>
  303a04:	e3a03000 	mov	r3, #0
  303a08:	e59d1014 	ldr	r1, [sp, #20]
  303a0c:	e1a00004 	mov	r0, r4
  303a10:	e3a0200a 	mov	r2, #10
  303a14:	eb000753 	bl	305768 <__multadd>
  303a18:	e59d3024 	ldr	r3, [sp, #36]	; 0x24
  303a1c:	e3530000 	cmp	r3, #0
  303a20:	e59d3008 	ldr	r3, [sp, #8]
  303a24:	e2433001 	sub	r3, r3, #1
  303a28:	e58d0014 	str	r0, [sp, #20]
  303a2c:	e58d3008 	str	r3, [sp, #8]
  303a30:	1a000020 	bne	303ab8 <_dtoa_r+0x11b0>
  303a34:	e59d3088 	ldr	r3, [sp, #136]	; 0x88
  303a38:	e59d2040 	ldr	r2, [sp, #64]	; 0x40
  303a3c:	e3530002 	cmp	r3, #2
  303a40:	c3a03001 	movgt	r3, #1
  303a44:	d3a03000 	movle	r3, #0
  303a48:	e3520000 	cmp	r2, #0
  303a4c:	c3a03000 	movgt	r3, #0
  303a50:	e3530000 	cmp	r3, #0
  303a54:	01a03002 	moveq	r3, r2
  303a58:	058d3010 	streq	r3, [sp, #16]
  303a5c:	0affff26 	beq	3036fc <_dtoa_r+0xdf4>
  303a60:	e59d3040 	ldr	r3, [sp, #64]	; 0x40
  303a64:	e58d3010 	str	r3, [sp, #16]
  303a68:	eafffd87 	b	30308c <_dtoa_r+0x784>
  303a6c:	e35a0000 	cmp	sl, #0
  303a70:	1afffef8 	bne	303658 <_dtoa_r+0xd50>
  303a74:	e3cb34ff 	bic	r3, fp, #-16777216	; 0xff000000
  303a78:	e3c3360f 	bic	r3, r3, #15728640	; 0xf00000
  303a7c:	e3530000 	cmp	r3, #0
  303a80:	1afffef4 	bne	303658 <_dtoa_r+0xd50>
  303a84:	e3cb8102 	bic	r8, fp, #-2147483648	; 0x80000000
  303a88:	e1a08a28 	lsr	r8, r8, #20
  303a8c:	e1a08a08 	lsl	r8, r8, #20
  303a90:	e3580000 	cmp	r8, #0
  303a94:	0afffef0 	beq	30365c <_dtoa_r+0xd54>
  303a98:	e59d3018 	ldr	r3, [sp, #24]
  303a9c:	e2833001 	add	r3, r3, #1
  303aa0:	e58d3018 	str	r3, [sp, #24]
  303aa4:	e59d300c 	ldr	r3, [sp, #12]
  303aa8:	e2833001 	add	r3, r3, #1
  303aac:	e58d300c 	str	r3, [sp, #12]
  303ab0:	e3a08001 	mov	r8, #1
  303ab4:	eafffee8 	b	30365c <_dtoa_r+0xd54>
  303ab8:	e1a01006 	mov	r1, r6
  303abc:	e3a0200a 	mov	r2, #10
  303ac0:	e3a03000 	mov	r3, #0
  303ac4:	e1a00004 	mov	r0, r4
  303ac8:	eb000726 	bl	305768 <__multadd>
  303acc:	e59d3088 	ldr	r3, [sp, #136]	; 0x88
  303ad0:	e59d2040 	ldr	r2, [sp, #64]	; 0x40
  303ad4:	e3530002 	cmp	r3, #2
  303ad8:	c3a03001 	movgt	r3, #1
  303adc:	d3a03000 	movle	r3, #0
  303ae0:	e3520000 	cmp	r2, #0
  303ae4:	c3a03000 	movgt	r3, #0
  303ae8:	e3530000 	cmp	r3, #0
  303aec:	01a03002 	moveq	r3, r2
  303af0:	e1a06000 	mov	r6, r0
  303af4:	058d3010 	streq	r3, [sp, #16]
  303af8:	1affffd8 	bne	303a60 <_dtoa_r+0x1158>
  303afc:	e3550000 	cmp	r5, #0
  303b00:	da000004 	ble	303b18 <_dtoa_r+0x1210>
  303b04:	e1a01006 	mov	r1, r6
  303b08:	e1a02005 	mov	r2, r5
  303b0c:	e1a00004 	mov	r0, r4
  303b10:	eb000887 	bl	305d34 <__lshift>
  303b14:	e1a06000 	mov	r6, r0
  303b18:	e3580000 	cmp	r8, #0
  303b1c:	058d6024 	streq	r6, [sp, #36]	; 0x24
  303b20:	1a0000db 	bne	303e94 <_dtoa_r+0x158c>
  303b24:	e59d3010 	ldr	r3, [sp, #16]
  303b28:	e59d201c 	ldr	r2, [sp, #28]
  303b2c:	e2433001 	sub	r3, r3, #1
  303b30:	e0823003 	add	r3, r2, r3
  303b34:	e58d3020 	str	r3, [sp, #32]
  303b38:	e20a3001 	and	r3, sl, #1
  303b3c:	e1a09007 	mov	r9, r7
  303b40:	e1a08002 	mov	r8, r2
  303b44:	e58d3018 	str	r3, [sp, #24]
  303b48:	e59db024 	ldr	fp, [sp, #36]	; 0x24
  303b4c:	e59d7014 	ldr	r7, [sp, #20]
  303b50:	ea000008 	b	303b78 <_dtoa_r+0x1270>
  303b54:	eb000703 	bl	305768 <__multadd>
  303b58:	e1a0100b 	mov	r1, fp
  303b5c:	e1a06000 	mov	r6, r0
  303b60:	e3a0200a 	mov	r2, #10
  303b64:	e1a00004 	mov	r0, r4
  303b68:	e3a03000 	mov	r3, #0
  303b6c:	eb0006fd 	bl	305768 <__multadd>
  303b70:	e1a0b000 	mov	fp, r0
  303b74:	e1a0800a 	mov	r8, sl
  303b78:	e1a01009 	mov	r1, r9
  303b7c:	e1a00007 	mov	r0, r7
  303b80:	ebfffaea 	bl	302730 <quorem>
  303b84:	e1a01006 	mov	r1, r6
  303b88:	e1a0a000 	mov	sl, r0
  303b8c:	e1a00007 	mov	r0, r7
  303b90:	eb0008a5 	bl	305e2c <__mcmp>
  303b94:	e1a0200b 	mov	r2, fp
  303b98:	e1a05000 	mov	r5, r0
  303b9c:	e1a01009 	mov	r1, r9
  303ba0:	e1a00004 	mov	r0, r4
  303ba4:	eb0008b9 	bl	305e90 <__mdiff>
  303ba8:	e590200c 	ldr	r2, [r0, #12]
  303bac:	e3520000 	cmp	r2, #0
  303bb0:	e28a2030 	add	r2, sl, #48	; 0x30
  303bb4:	e1a03000 	mov	r3, r0
  303bb8:	e58d200c 	str	r2, [sp, #12]
  303bbc:	1a000031 	bne	303c88 <_dtoa_r+0x1380>
  303bc0:	e1a01003 	mov	r1, r3
  303bc4:	e1a00007 	mov	r0, r7
  303bc8:	e58d3010 	str	r3, [sp, #16]
  303bcc:	eb000896 	bl	305e2c <__mcmp>
  303bd0:	e1a02000 	mov	r2, r0
  303bd4:	e59d3010 	ldr	r3, [sp, #16]
  303bd8:	e1a01003 	mov	r1, r3
  303bdc:	e1a00004 	mov	r0, r4
  303be0:	e58d2010 	str	r2, [sp, #16]
  303be4:	eb0006d8 	bl	30574c <_Bfree>
  303be8:	e59d3088 	ldr	r3, [sp, #136]	; 0x88
  303bec:	e59d2010 	ldr	r2, [sp, #16]
  303bf0:	e1923003 	orrs	r3, r2, r3
  303bf4:	1a000002 	bne	303c04 <_dtoa_r+0x12fc>
  303bf8:	e59d3018 	ldr	r3, [sp, #24]
  303bfc:	e3530000 	cmp	r3, #0
  303c00:	0a0000cc 	beq	303f38 <_dtoa_r+0x1630>
  303c04:	e3550000 	cmp	r5, #0
  303c08:	ba00007a 	blt	303df8 <_dtoa_r+0x14f0>
  303c0c:	e59d3088 	ldr	r3, [sp, #136]	; 0x88
  303c10:	e1953003 	orrs	r3, r5, r3
  303c14:	1a000002 	bne	303c24 <_dtoa_r+0x131c>
  303c18:	e59d3018 	ldr	r3, [sp, #24]
  303c1c:	e3530000 	cmp	r3, #0
  303c20:	0a000074 	beq	303df8 <_dtoa_r+0x14f0>
  303c24:	e3520000 	cmp	r2, #0
  303c28:	ca0000a9 	bgt	303ed4 <_dtoa_r+0x15cc>
  303c2c:	e59d3020 	ldr	r3, [sp, #32]
  303c30:	e1580003 	cmp	r8, r3
  303c34:	e5dd300c 	ldrb	r3, [sp, #12]
  303c38:	e288a001 	add	sl, r8, #1
  303c3c:	e5c83000 	strb	r3, [r8]
  303c40:	e1a0500a 	mov	r5, sl
  303c44:	0a0000ae 	beq	303f04 <_dtoa_r+0x15fc>
  303c48:	e1a01007 	mov	r1, r7
  303c4c:	e3a0200a 	mov	r2, #10
  303c50:	e3a03000 	mov	r3, #0
  303c54:	e1a00004 	mov	r0, r4
  303c58:	eb0006c2 	bl	305768 <__multadd>
  303c5c:	e156000b 	cmp	r6, fp
  303c60:	e1a07000 	mov	r7, r0
  303c64:	e1a01006 	mov	r1, r6
  303c68:	e1a00004 	mov	r0, r4
  303c6c:	e3a0200a 	mov	r2, #10
  303c70:	e3a03000 	mov	r3, #0
  303c74:	1affffb6 	bne	303b54 <_dtoa_r+0x124c>
  303c78:	eb0006ba 	bl	305768 <__multadd>
  303c7c:	e1a06000 	mov	r6, r0
  303c80:	e1a0b000 	mov	fp, r0
  303c84:	eaffffba 	b	303b74 <_dtoa_r+0x126c>
  303c88:	e3a02001 	mov	r2, #1
  303c8c:	eaffffd1 	b	303bd8 <_dtoa_r+0x12d0>
  303c90:	e3a03001 	mov	r3, #1
  303c94:	e58d308c 	str	r3, [sp, #140]	; 0x8c
  303c98:	e58d3040 	str	r3, [sp, #64]	; 0x40
  303c9c:	e58d3010 	str	r3, [sp, #16]
  303ca0:	e3a01000 	mov	r1, #0
  303ca4:	e0055003 	and	r5, r5, r3
  303ca8:	e5841044 	str	r1, [r4, #68]	; 0x44
  303cac:	eafffd86 	b	3032cc <_dtoa_r+0x9c4>
  303cb0:	e353000e 	cmp	r3, #14
  303cb4:	83a03000 	movhi	r3, #0
  303cb8:	93a03001 	movls	r3, #1
  303cbc:	eafffff7 	b	303ca0 <_dtoa_r+0x1398>
  303cc0:	e59d1014 	ldr	r1, [sp, #20]
  303cc4:	e59d2020 	ldr	r2, [sp, #32]
  303cc8:	e1a00004 	mov	r0, r4
  303ccc:	eb0007d7 	bl	305c30 <__pow5mult>
  303cd0:	e58d0014 	str	r0, [sp, #20]
  303cd4:	eafffcac 	b	302f8c <_dtoa_r+0x684>
  303cd8:	e59d3010 	ldr	r3, [sp, #16]
  303cdc:	e3530000 	cmp	r3, #0
  303ce0:	0afffe62 	beq	303670 <_dtoa_r+0xd68>
  303ce4:	e59d5040 	ldr	r5, [sp, #64]	; 0x40
  303ce8:	e3550000 	cmp	r5, #0
  303cec:	dafffec7 	ble	303810 <_dtoa_r+0xf08>
  303cf0:	e3a02000 	mov	r2, #0
  303cf4:	e51f3e5c 	ldr	r3, [pc, #-3676]	; 302ea0 <_dtoa_r+0x598>
  303cf8:	e28d1030 	add	r1, sp, #48	; 0x30
  303cfc:	e8910003 	ldm	r1, {r0, r1}
  303d00:	eb001631 	bl	3095cc <__aeabi_dmul>
  303d04:	e1a06000 	mov	r6, r0
  303d08:	e1a07001 	mov	r7, r1
  303d0c:	e2880001 	add	r0, r8, #1
  303d10:	e58d6030 	str	r6, [sp, #48]	; 0x30
  303d14:	e58d7034 	str	r7, [sp, #52]	; 0x34
  303d18:	eb0015f4 	bl	3094f0 <__aeabi_i2d>
  303d1c:	e1a02000 	mov	r2, r0
  303d20:	e1a03001 	mov	r3, r1
  303d24:	e1a00006 	mov	r0, r6
  303d28:	e1a01007 	mov	r1, r7
  303d2c:	eb001626 	bl	3095cc <__aeabi_dmul>
  303d30:	e51f3e94 	ldr	r3, [pc, #-3732]	; 302ea4 <_dtoa_r+0x59c>
  303d34:	e3a02000 	mov	r2, #0
  303d38:	eb00151f 	bl	3091bc <__adddf3>
  303d3c:	e59d3008 	ldr	r3, [sp, #8]
  303d40:	e2433001 	sub	r3, r3, #1
  303d44:	e1a06000 	mov	r6, r0
  303d48:	e58d3050 	str	r3, [sp, #80]	; 0x50
  303d4c:	e241750d 	sub	r7, r1, #54525952	; 0x3400000
  303d50:	e1a0c005 	mov	ip, r5
  303d54:	eafffda8 	b	3033fc <_dtoa_r+0xaf4>
  303d58:	e28d3038 	add	r3, sp, #56	; 0x38
  303d5c:	e893000c 	ldm	r3, {r2, r3}
  303d60:	e3a08002 	mov	r8, #2
  303d64:	e58d2030 	str	r2, [sp, #48]	; 0x30
  303d68:	e58d3034 	str	r3, [sp, #52]	; 0x34
  303d6c:	eafffd88 	b	303394 <_dtoa_r+0xa8c>
  303d70:	e3a03030 	mov	r3, #48	; 0x30
  303d74:	e59d1050 	ldr	r1, [sp, #80]	; 0x50
  303d78:	e2811001 	add	r1, r1, #1
  303d7c:	e5c23000 	strb	r3, [r2]
  303d80:	e58d1008 	str	r1, [sp, #8]
  303d84:	e3a03031 	mov	r3, #49	; 0x31
  303d88:	eafffc50 	b	302ed0 <_dtoa_r+0x5c8>
  303d8c:	e59d1014 	ldr	r1, [sp, #20]
  303d90:	e1a00004 	mov	r0, r4
  303d94:	eb0007a5 	bl	305c30 <__pow5mult>
  303d98:	e58d0014 	str	r0, [sp, #20]
  303d9c:	eafffc7a 	b	302f8c <_dtoa_r+0x684>
  303da0:	e35a0000 	cmp	sl, #0
  303da4:	0affff32 	beq	303a74 <_dtoa_r+0x116c>
  303da8:	eafffc86 	b	302fc8 <_dtoa_r+0x6c0>
  303dac:	e3a03031 	mov	r3, #49	; 0x31
  303db0:	e59d2008 	ldr	r2, [sp, #8]
  303db4:	e2822001 	add	r2, r2, #1
  303db8:	e58d2008 	str	r2, [sp, #8]
  303dbc:	e59d201c 	ldr	r2, [sp, #28]
  303dc0:	e5c23000 	strb	r3, [r2]
  303dc4:	eafffe7c 	b	3037bc <_dtoa_r+0xeb4>
  303dc8:	e59d2044 	ldr	r2, [sp, #68]	; 0x44
  303dcc:	e3520000 	cmp	r2, #0
  303dd0:	059d3058 	ldreq	r3, [sp, #88]	; 0x58
  303dd4:	12833e43 	addne	r3, r3, #1072	; 0x430
  303dd8:	12833003 	addne	r3, r3, #3
  303ddc:	159d7020 	ldrne	r7, [sp, #32]
  303de0:	059d7020 	ldreq	r7, [sp, #32]
  303de4:	02633036 	rsbeq	r3, r3, #54	; 0x36
  303de8:	e59d5018 	ldr	r5, [sp, #24]
  303dec:	eafffd13 	b	303240 <_dtoa_r+0x938>
  303df0:	e59d400c 	ldr	r4, [sp, #12]
  303df4:	eafffcc0 	b	3030fc <_dtoa_r+0x7f4>
  303df8:	e58d7014 	str	r7, [sp, #20]
  303dfc:	e1a07009 	mov	r7, r9
  303e00:	e59d900c 	ldr	r9, [sp, #12]
  303e04:	e3520000 	cmp	r2, #0
  303e08:	e58db024 	str	fp, [sp, #36]	; 0x24
  303e0c:	e1a05009 	mov	r5, r9
  303e10:	da00000b 	ble	303e44 <_dtoa_r+0x153c>
  303e14:	e59d1014 	ldr	r1, [sp, #20]
  303e18:	e3a02001 	mov	r2, #1
  303e1c:	e1a00004 	mov	r0, r4
  303e20:	eb0007c3 	bl	305d34 <__lshift>
  303e24:	e1a01007 	mov	r1, r7
  303e28:	e58d0014 	str	r0, [sp, #20]
  303e2c:	eb0007fe 	bl	305e2c <__mcmp>
  303e30:	e3500000 	cmp	r0, #0
  303e34:	da00004c 	ble	303f6c <_dtoa_r+0x1664>
  303e38:	e3590039 	cmp	r9, #57	; 0x39
  303e3c:	0a000037 	beq	303f20 <_dtoa_r+0x1618>
  303e40:	e2895001 	add	r5, r9, #1
  303e44:	e1a0b006 	mov	fp, r6
  303e48:	e5c85000 	strb	r5, [r8]
  303e4c:	e59d6024 	ldr	r6, [sp, #36]	; 0x24
  303e50:	e2885001 	add	r5, r8, #1
  303e54:	eafffe58 	b	3037bc <_dtoa_r+0xeb4>
  303e58:	e59d4048 	ldr	r4, [sp, #72]	; 0x48
  303e5c:	eafffbf8 	b	302e44 <_dtoa_r+0x53c>
  303e60:	1a000003 	bne	303e74 <_dtoa_r+0x156c>
  303e64:	e3190001 	tst	r9, #1
  303e68:	0a000001 	beq	303e74 <_dtoa_r+0x156c>
  303e6c:	eafffe46 	b	30378c <_dtoa_r+0xe84>
  303e70:	e1a05003 	mov	r5, r3
  303e74:	e5553001 	ldrb	r3, [r5, #-1]
  303e78:	e3530030 	cmp	r3, #48	; 0x30
  303e7c:	e2453001 	sub	r3, r5, #1
  303e80:	0afffffa 	beq	303e70 <_dtoa_r+0x1568>
  303e84:	eafffe4c 	b	3037bc <_dtoa_r+0xeb4>
  303e88:	e3a07000 	mov	r7, #0
  303e8c:	e1a06007 	mov	r6, r7
  303e90:	eafffde8 	b	303638 <_dtoa_r+0xd30>
  303e94:	e5961004 	ldr	r1, [r6, #4]
  303e98:	e1a00004 	mov	r0, r4
  303e9c:	eb000606 	bl	3056bc <_Balloc>
  303ea0:	e1a05000 	mov	r5, r0
  303ea4:	e5962010 	ldr	r2, [r6, #16]
  303ea8:	e2822002 	add	r2, r2, #2
  303eac:	e1a02102 	lsl	r2, r2, #2
  303eb0:	e286100c 	add	r1, r6, #12
  303eb4:	e280000c 	add	r0, r0, #12
  303eb8:	eb00058d 	bl	3054f4 <memcpy>
  303ebc:	e1a00004 	mov	r0, r4
  303ec0:	e1a01005 	mov	r1, r5
  303ec4:	e3a02001 	mov	r2, #1
  303ec8:	eb000799 	bl	305d34 <__lshift>
  303ecc:	e58d0024 	str	r0, [sp, #36]	; 0x24
  303ed0:	eaffff13 	b	303b24 <_dtoa_r+0x121c>
  303ed4:	e58d7014 	str	r7, [sp, #20]
  303ed8:	e1a07009 	mov	r7, r9
  303edc:	e59d900c 	ldr	r9, [sp, #12]
  303ee0:	e3590039 	cmp	r9, #57	; 0x39
  303ee4:	e58db024 	str	fp, [sp, #36]	; 0x24
  303ee8:	0a00000c 	beq	303f20 <_dtoa_r+0x1618>
  303eec:	e2899001 	add	r9, r9, #1
  303ef0:	e1a0b006 	mov	fp, r6
  303ef4:	e5c89000 	strb	r9, [r8]
  303ef8:	e2885001 	add	r5, r8, #1
  303efc:	e59d6024 	ldr	r6, [sp, #36]	; 0x24
  303f00:	eafffe2d 	b	3037bc <_dtoa_r+0xeb4>
  303f04:	e1a0300b 	mov	r3, fp
  303f08:	e58d7014 	str	r7, [sp, #20]
  303f0c:	e1a0b006 	mov	fp, r6
  303f10:	e1a07009 	mov	r7, r9
  303f14:	e1a06003 	mov	r6, r3
  303f18:	e59d900c 	ldr	r9, [sp, #12]
  303f1c:	eafffe11 	b	303768 <_dtoa_r+0xe60>
  303f20:	e3a02039 	mov	r2, #57	; 0x39
  303f24:	e1a0b006 	mov	fp, r6
  303f28:	e2885001 	add	r5, r8, #1
  303f2c:	e59d6024 	ldr	r6, [sp, #36]	; 0x24
  303f30:	e5c82000 	strb	r2, [r8]
  303f34:	eafffe15 	b	303790 <_dtoa_r+0xe88>
  303f38:	e58d7014 	str	r7, [sp, #20]
  303f3c:	e1a07009 	mov	r7, r9
  303f40:	e59d900c 	ldr	r9, [sp, #12]
  303f44:	e3590039 	cmp	r9, #57	; 0x39
  303f48:	e58db024 	str	fp, [sp, #36]	; 0x24
  303f4c:	0afffff3 	beq	303f20 <_dtoa_r+0x1618>
  303f50:	e3550000 	cmp	r5, #0
  303f54:	c28a9031 	addgt	r9, sl, #49	; 0x31
  303f58:	e1a0b006 	mov	fp, r6
  303f5c:	e5c89000 	strb	r9, [r8]
  303f60:	e2885001 	add	r5, r8, #1
  303f64:	e59d6024 	ldr	r6, [sp, #36]	; 0x24
  303f68:	eafffe13 	b	3037bc <_dtoa_r+0xeb4>
  303f6c:	1affffb4 	bne	303e44 <_dtoa_r+0x153c>
  303f70:	e3190001 	tst	r9, #1
  303f74:	0affffb2 	beq	303e44 <_dtoa_r+0x153c>
  303f78:	eaffffae 	b	303e38 <_dtoa_r+0x1530>
  303f7c:	1260003c 	rsbne	r0, r0, #60	; 0x3c
  303f80:	0afffc25 	beq	30301c <_dtoa_r+0x714>
  303f84:	eafffc1d 	b	303000 <_dtoa_r+0x6f8>
  303f88:	e3a03001 	mov	r3, #1
  303f8c:	e58d3024 	str	r3, [sp, #36]	; 0x24
  303f90:	eafffd88 	b	3035b8 <_dtoa_r+0xcb0>
  303f94:	e3e03000 	mvn	r3, #0
  303f98:	e58d508c 	str	r5, [sp, #140]	; 0x8c
  303f9c:	e58d3010 	str	r3, [sp, #16]
  303fa0:	eafffb38 	b	302c88 <_dtoa_r+0x380>

00303fa4 <_fflush_r>:
  303fa4:	e92d40f8 	push	{r3, r4, r5, r6, r7, lr}
  303fa8:	e2507000 	subs	r7, r0, #0
  303fac:	e1a04001 	mov	r4, r1
  303fb0:	0a000002 	beq	303fc0 <_fflush_r+0x1c>
  303fb4:	e5973038 	ldr	r3, [r7, #56]	; 0x38
  303fb8:	e3530000 	cmp	r3, #0
  303fbc:	0a00005d 	beq	304138 <_fflush_r+0x194>
  303fc0:	e1d430bc 	ldrh	r3, [r4, #12]
  303fc4:	e3530000 	cmp	r3, #0
  303fc8:	0a000024 	beq	304060 <_fflush_r+0xbc>
  303fcc:	e3130008 	tst	r3, #8
  303fd0:	0a000025 	beq	30406c <_fflush_r+0xc8>
  303fd4:	e5946010 	ldr	r6, [r4, #16]
  303fd8:	e3560000 	cmp	r6, #0
  303fdc:	0a00001f 	beq	304060 <_fflush_r+0xbc>
  303fe0:	e3130003 	tst	r3, #3
  303fe4:	13a03000 	movne	r3, #0
  303fe8:	e5945000 	ldr	r5, [r4]
  303fec:	05943014 	ldreq	r3, [r4, #20]
  303ff0:	e0665005 	rsb	r5, r6, r5
  303ff4:	e3550000 	cmp	r5, #0
  303ff8:	e5846000 	str	r6, [r4]
  303ffc:	e5843008 	str	r3, [r4, #8]
  304000:	ca000003 	bgt	304014 <_fflush_r+0x70>
  304004:	ea000015 	b	304060 <_fflush_r+0xbc>
  304008:	e3550000 	cmp	r5, #0
  30400c:	e0866000 	add	r6, r6, r0
  304010:	da000012 	ble	304060 <_fflush_r+0xbc>
  304014:	e1a03005 	mov	r3, r5
  304018:	e1a00007 	mov	r0, r7
  30401c:	e594101c 	ldr	r1, [r4, #28]
  304020:	e1a02006 	mov	r2, r6
  304024:	e594c024 	ldr	ip, [r4, #36]	; 0x24
  304028:	e1a0e00f 	mov	lr, pc
  30402c:	e12fff1c 	bx	ip
  304030:	e3500000 	cmp	r0, #0
  304034:	e0605005 	rsb	r5, r0, r5
  304038:	cafffff2 	bgt	304008 <_fflush_r+0x64>
  30403c:	e1d430bc 	ldrh	r3, [r4, #12]
  304040:	e3833040 	orr	r3, r3, #64	; 0x40
  304044:	e1c430bc 	strh	r3, [r4, #12]
  304048:	e3e00000 	mvn	r0, #0
  30404c:	e8bd40f8 	pop	{r3, r4, r5, r6, r7, lr}
  304050:	e12fff1e 	bx	lr
  304054:	e594203c 	ldr	r2, [r4, #60]	; 0x3c
  304058:	e3520000 	cmp	r2, #0
  30405c:	ca000007 	bgt	304080 <_fflush_r+0xdc>
  304060:	e3a00000 	mov	r0, #0
  304064:	e8bd40f8 	pop	{r3, r4, r5, r6, r7, lr}
  304068:	e12fff1e 	bx	lr
  30406c:	e5942004 	ldr	r2, [r4, #4]
  304070:	e3833b02 	orr	r3, r3, #2048	; 0x800
  304074:	e3520000 	cmp	r2, #0
  304078:	e1c430bc 	strh	r3, [r4, #12]
  30407c:	dafffff4 	ble	304054 <_fflush_r+0xb0>
  304080:	e594c028 	ldr	ip, [r4, #40]	; 0x28
  304084:	e35c0000 	cmp	ip, #0
  304088:	0afffff4 	beq	304060 <_fflush_r+0xbc>
  30408c:	e3a02000 	mov	r2, #0
  304090:	e2136a01 	ands	r6, r3, #4096	; 0x1000
  304094:	e5975000 	ldr	r5, [r7]
  304098:	e5872000 	str	r2, [r7]
  30409c:	0a000027 	beq	304140 <_fflush_r+0x19c>
  3040a0:	e5942050 	ldr	r2, [r4, #80]	; 0x50
  3040a4:	e3130004 	tst	r3, #4
  3040a8:	0a000005 	beq	3040c4 <_fflush_r+0x120>
  3040ac:	e5941030 	ldr	r1, [r4, #48]	; 0x30
  3040b0:	e5943004 	ldr	r3, [r4, #4]
  3040b4:	e3510000 	cmp	r1, #0
  3040b8:	e0632002 	rsb	r2, r3, r2
  3040bc:	1594303c 	ldrne	r3, [r4, #60]	; 0x3c
  3040c0:	10632002 	rsbne	r2, r3, r2
  3040c4:	e1a00007 	mov	r0, r7
  3040c8:	e594101c 	ldr	r1, [r4, #28]
  3040cc:	e3a03000 	mov	r3, #0
  3040d0:	e1a0e00f 	mov	lr, pc
  3040d4:	e12fff1c 	bx	ip
  3040d8:	e3700001 	cmn	r0, #1
  3040dc:	0a000023 	beq	304170 <_fflush_r+0x1cc>
  3040e0:	e3a01000 	mov	r1, #0
  3040e4:	e1d430bc 	ldrh	r3, [r4, #12]
  3040e8:	e5942010 	ldr	r2, [r4, #16]
  3040ec:	e3c33b02 	bic	r3, r3, #2048	; 0x800
  3040f0:	e3130a01 	tst	r3, #4096	; 0x1000
  3040f4:	e1c430bc 	strh	r3, [r4, #12]
  3040f8:	e5841004 	str	r1, [r4, #4]
  3040fc:	e5842000 	str	r2, [r4]
  304100:	0a000000 	beq	304108 <_fflush_r+0x164>
  304104:	e5840050 	str	r0, [r4, #80]	; 0x50
  304108:	e5941030 	ldr	r1, [r4, #48]	; 0x30
  30410c:	e3510000 	cmp	r1, #0
  304110:	e5875000 	str	r5, [r7]
  304114:	0affffd1 	beq	304060 <_fflush_r+0xbc>
  304118:	e2843040 	add	r3, r4, #64	; 0x40
  30411c:	e1510003 	cmp	r1, r3
  304120:	11a00007 	movne	r0, r7
  304124:	1b000158 	blne	30468c <_free_r>
  304128:	e3a00000 	mov	r0, #0
  30412c:	e5840030 	str	r0, [r4, #48]	; 0x30
  304130:	e8bd40f8 	pop	{r3, r4, r5, r6, r7, lr}
  304134:	e12fff1e 	bx	lr
  304138:	eb0000f9 	bl	304524 <__sinit>
  30413c:	eaffff9f 	b	303fc0 <_fflush_r+0x1c>
  304140:	e1a02006 	mov	r2, r6
  304144:	e1a00007 	mov	r0, r7
  304148:	e594101c 	ldr	r1, [r4, #28]
  30414c:	e3a03001 	mov	r3, #1
  304150:	e1a0e00f 	mov	lr, pc
  304154:	e12fff1c 	bx	ip
  304158:	e3700001 	cmn	r0, #1
  30415c:	e1a02000 	mov	r2, r0
  304160:	0a000017 	beq	3041c4 <_fflush_r+0x220>
  304164:	e1d430bc 	ldrh	r3, [r4, #12]
  304168:	e594c028 	ldr	ip, [r4, #40]	; 0x28
  30416c:	eaffffcc 	b	3040a4 <_fflush_r+0x100>
  304170:	e5972000 	ldr	r2, [r7]
  304174:	e2721001 	rsbs	r1, r2, #1
  304178:	33a01000 	movcc	r1, #0
  30417c:	e352001d 	cmp	r2, #29
  304180:	11a03001 	movne	r3, r1
  304184:	03813001 	orreq	r3, r1, #1
  304188:	e3520016 	cmp	r2, #22
  30418c:	03833001 	orreq	r3, r3, #1
  304190:	e3530000 	cmp	r3, #0
  304194:	0a000016 	beq	3041f4 <_fflush_r+0x250>
  304198:	e3a0c000 	mov	ip, #0
  30419c:	e1d430bc 	ldrh	r3, [r4, #12]
  3041a0:	e5942010 	ldr	r2, [r4, #16]
  3041a4:	e3c33b02 	bic	r3, r3, #2048	; 0x800
  3041a8:	e3130a01 	tst	r3, #4096	; 0x1000
  3041ac:	e1c430bc 	strh	r3, [r4, #12]
  3041b0:	e8841004 	stm	r4, {r2, ip}
  3041b4:	0affffd3 	beq	304108 <_fflush_r+0x164>
  3041b8:	e3510000 	cmp	r1, #0
  3041bc:	0affffd1 	beq	304108 <_fflush_r+0x164>
  3041c0:	eaffffcf 	b	304104 <_fflush_r+0x160>
  3041c4:	e5973000 	ldr	r3, [r7]
  3041c8:	e3530000 	cmp	r3, #0
  3041cc:	0affffe4 	beq	304164 <_fflush_r+0x1c0>
  3041d0:	e353001d 	cmp	r3, #29
  3041d4:	13530016 	cmpne	r3, #22
  3041d8:	11d430bc 	ldrhne	r3, [r4, #12]
  3041dc:	13833040 	orrne	r3, r3, #64	; 0x40
  3041e0:	05875000 	streq	r5, [r7]
  3041e4:	01a00006 	moveq	r0, r6
  3041e8:	11a00002 	movne	r0, r2
  3041ec:	11c430bc 	strhne	r3, [r4, #12]
  3041f0:	eaffff9b 	b	304064 <_fflush_r+0xc0>
  3041f4:	e1d430bc 	ldrh	r3, [r4, #12]
  3041f8:	e3833040 	orr	r3, r3, #64	; 0x40
  3041fc:	e1c430bc 	strh	r3, [r4, #12]
  304200:	eaffff97 	b	304064 <_fflush_r+0xc0>

00304204 <fflush>:
  304204:	e2501000 	subs	r1, r0, #0
  304208:	e92d4008 	push	{r3, lr}
  30420c:	159f3020 	ldrne	r3, [pc, #32]	; 304234 <fflush+0x30>
  304210:	15930000 	ldrne	r0, [r3]
  304214:	18bd4008 	popne	{r3, lr}
  304218:	1affff61 	bne	303fa4 <_fflush_r>
  30421c:	e59f3014 	ldr	r3, [pc, #20]	; 304238 <fflush+0x34>
  304220:	e59f1014 	ldr	r1, [pc, #20]	; 30423c <fflush+0x38>
  304224:	e5930000 	ldr	r0, [r3]
  304228:	eb0001eb 	bl	3049dc <_fwalk_reent>
  30422c:	e8bd4008 	pop	{r3, lr}
  304230:	e12fff1e 	bx	lr
  304234:	0030b000 	eorseq	fp, r0, r0
  304238:	0030a020 	eorseq	sl, r0, r0, lsr #32
  30423c:	00303fa4 	eorseq	r3, r0, r4, lsr #31

00304240 <__fp_lock>:
  304240:	e3a00000 	mov	r0, #0
  304244:	e12fff1e 	bx	lr

00304248 <__fp_unlock>:
  304248:	e3a00000 	mov	r0, #0
  30424c:	e12fff1e 	bx	lr

00304250 <_cleanup_r>:
  304250:	e92d4008 	push	{r3, lr}
  304254:	e59f1008 	ldr	r1, [pc, #8]	; 304264 <_cleanup_r+0x14>
  304258:	eb0001ba 	bl	304948 <_fwalk>
  30425c:	e8bd4008 	pop	{r3, lr}
  304260:	e12fff1e 	bx	lr
  304264:	00307dd8 	ldrsbteq	r7, [r0], -r8

00304268 <__sinit.part.1>:
  304268:	e92d4ff0 	push	{r4, r5, r6, r7, r8, r9, sl, fp, lr}
  30426c:	e1a07000 	mov	r7, r0
  304270:	e3a04000 	mov	r4, #0
  304274:	e3a03001 	mov	r3, #1
  304278:	e3a00003 	mov	r0, #3
  30427c:	e3a02004 	mov	r2, #4
  304280:	e5975004 	ldr	r5, [r7, #4]
  304284:	e59fc128 	ldr	ip, [pc, #296]	; 3043b4 <__sinit.part.1+0x14c>
  304288:	e2871fbb 	add	r1, r7, #748	; 0x2ec
  30428c:	e587c03c 	str	ip, [r7, #60]	; 0x3c
  304290:	e58702e4 	str	r0, [r7, #740]	; 0x2e4
  304294:	e58712e8 	str	r1, [r7, #744]	; 0x2e8
  304298:	e5873038 	str	r3, [r7, #56]	; 0x38
  30429c:	e58742e0 	str	r4, [r7, #736]	; 0x2e0
  3042a0:	e24dd00c 	sub	sp, sp, #12
  3042a4:	e5854000 	str	r4, [r5]
  3042a8:	e5854004 	str	r4, [r5, #4]
  3042ac:	e5854008 	str	r4, [r5, #8]
  3042b0:	e5854064 	str	r4, [r5, #100]	; 0x64
  3042b4:	e1c540be 	strh	r4, [r5, #14]
  3042b8:	e5854010 	str	r4, [r5, #16]
  3042bc:	e5854014 	str	r4, [r5, #20]
  3042c0:	e5854018 	str	r4, [r5, #24]
  3042c4:	e1c520bc 	strh	r2, [r5, #12]
  3042c8:	e1a01004 	mov	r1, r4
  3042cc:	e285005c 	add	r0, r5, #92	; 0x5c
  3042d0:	e3a02008 	mov	r2, #8
  3042d4:	e58d3004 	str	r3, [sp, #4]
  3042d8:	eb0004b8 	bl	3055c0 <memset>
  3042dc:	e3a02009 	mov	r2, #9
  3042e0:	e5976008 	ldr	r6, [r7, #8]
  3042e4:	e59fb0cc 	ldr	fp, [pc, #204]	; 3043b8 <__sinit.part.1+0x150>
  3042e8:	e59fa0cc 	ldr	sl, [pc, #204]	; 3043bc <__sinit.part.1+0x154>
  3042ec:	e59f90cc 	ldr	r9, [pc, #204]	; 3043c0 <__sinit.part.1+0x158>
  3042f0:	e59f80cc 	ldr	r8, [pc, #204]	; 3043c4 <__sinit.part.1+0x15c>
  3042f4:	e59d3004 	ldr	r3, [sp, #4]
  3042f8:	e585b020 	str	fp, [r5, #32]
  3042fc:	e585a024 	str	sl, [r5, #36]	; 0x24
  304300:	e5859028 	str	r9, [r5, #40]	; 0x28
  304304:	e585802c 	str	r8, [r5, #44]	; 0x2c
  304308:	e585501c 	str	r5, [r5, #28]
  30430c:	e1a01004 	mov	r1, r4
  304310:	e1c630be 	strh	r3, [r6, #14]
  304314:	e1c620bc 	strh	r2, [r6, #12]
  304318:	e286005c 	add	r0, r6, #92	; 0x5c
  30431c:	e5864000 	str	r4, [r6]
  304320:	e5864004 	str	r4, [r6, #4]
  304324:	e5864008 	str	r4, [r6, #8]
  304328:	e5864064 	str	r4, [r6, #100]	; 0x64
  30432c:	e5864010 	str	r4, [r6, #16]
  304330:	e5864014 	str	r4, [r6, #20]
  304334:	e5864018 	str	r4, [r6, #24]
  304338:	e3a02008 	mov	r2, #8
  30433c:	eb00049f 	bl	3055c0 <memset>
  304340:	e3a03002 	mov	r3, #2
  304344:	e3a02012 	mov	r2, #18
  304348:	e597500c 	ldr	r5, [r7, #12]
  30434c:	e1a01004 	mov	r1, r4
  304350:	e586601c 	str	r6, [r6, #28]
  304354:	e586b020 	str	fp, [r6, #32]
  304358:	e586a024 	str	sl, [r6, #36]	; 0x24
  30435c:	e5869028 	str	r9, [r6, #40]	; 0x28
  304360:	e586802c 	str	r8, [r6, #44]	; 0x2c
  304364:	e285005c 	add	r0, r5, #92	; 0x5c
  304368:	e1c520bc 	strh	r2, [r5, #12]
  30436c:	e5854000 	str	r4, [r5]
  304370:	e5854004 	str	r4, [r5, #4]
  304374:	e5854008 	str	r4, [r5, #8]
  304378:	e5854064 	str	r4, [r5, #100]	; 0x64
  30437c:	e5854010 	str	r4, [r5, #16]
  304380:	e5854014 	str	r4, [r5, #20]
  304384:	e5854018 	str	r4, [r5, #24]
  304388:	e1c530be 	strh	r3, [r5, #14]
  30438c:	e3a02008 	mov	r2, #8
  304390:	eb00048a 	bl	3055c0 <memset>
  304394:	e585501c 	str	r5, [r5, #28]
  304398:	e585b020 	str	fp, [r5, #32]
  30439c:	e585a024 	str	sl, [r5, #36]	; 0x24
  3043a0:	e5859028 	str	r9, [r5, #40]	; 0x28
  3043a4:	e585802c 	str	r8, [r5, #44]	; 0x2c
  3043a8:	e28dd00c 	add	sp, sp, #12
  3043ac:	e8bd4ff0 	pop	{r4, r5, r6, r7, r8, r9, sl, fp, lr}
  3043b0:	e12fff1e 	bx	lr
  3043b4:	00304250 	eorseq	r4, r0, r0, asr r2
  3043b8:	003064e0 	eorseq	r6, r0, r0, ror #9
  3043bc:	0030651c 	eorseq	r6, r0, ip, lsl r5
  3043c0:	00306574 	eorseq	r6, r0, r4, ror r5
  3043c4:	003065a4 	eorseq	r6, r0, r4, lsr #11

003043c8 <__sfmoreglue>:
  3043c8:	e92d4070 	push	{r4, r5, r6, lr}
  3043cc:	e0814081 	add	r4, r1, r1, lsl #1
  3043d0:	e0814104 	add	r4, r1, r4, lsl #2
  3043d4:	e1a04184 	lsl	r4, r4, #3
  3043d8:	e1a06001 	mov	r6, r1
  3043dc:	e284100c 	add	r1, r4, #12
  3043e0:	eb000230 	bl	304ca8 <_malloc_r>
  3043e4:	e2505000 	subs	r5, r0, #0
  3043e8:	0a000006 	beq	304408 <__sfmoreglue+0x40>
  3043ec:	e3a01000 	mov	r1, #0
  3043f0:	e285000c 	add	r0, r5, #12
  3043f4:	e5856004 	str	r6, [r5, #4]
  3043f8:	e1a02004 	mov	r2, r4
  3043fc:	e5851000 	str	r1, [r5]
  304400:	e5850008 	str	r0, [r5, #8]
  304404:	eb00046d 	bl	3055c0 <memset>
  304408:	e1a00005 	mov	r0, r5
  30440c:	e8bd4070 	pop	{r4, r5, r6, lr}
  304410:	e12fff1e 	bx	lr

00304414 <__sfp>:
  304414:	e59f30e0 	ldr	r3, [pc, #224]	; 3044fc <__sfp+0xe8>
  304418:	e92d4070 	push	{r4, r5, r6, lr}
  30441c:	e5935000 	ldr	r5, [r3]
  304420:	e5953038 	ldr	r3, [r5, #56]	; 0x38
  304424:	e3530000 	cmp	r3, #0
  304428:	e1a06000 	mov	r6, r0
  30442c:	01a00005 	moveq	r0, r5
  304430:	0bffff8c 	bleq	304268 <__sinit.part.1>
  304434:	e2855e2e 	add	r5, r5, #736	; 0x2e0
  304438:	e5953004 	ldr	r3, [r5, #4]
  30443c:	e2533001 	subs	r3, r3, #1
  304440:	e5954008 	ldr	r4, [r5, #8]
  304444:	5a000004 	bpl	30445c <__sfp+0x48>
  304448:	ea00001d 	b	3044c4 <__sfp+0xb0>
  30444c:	e2433001 	sub	r3, r3, #1
  304450:	e3730001 	cmn	r3, #1
  304454:	e2844068 	add	r4, r4, #104	; 0x68
  304458:	0a000019 	beq	3044c4 <__sfp+0xb0>
  30445c:	e1d420fc 	ldrsh	r2, [r4, #12]
  304460:	e3520000 	cmp	r2, #0
  304464:	1afffff8 	bne	30444c <__sfp+0x38>
  304468:	e3a05000 	mov	r5, #0
  30446c:	e3e02000 	mvn	r2, #0
  304470:	e3a03001 	mov	r3, #1
  304474:	e1c420be 	strh	r2, [r4, #14]
  304478:	e1c430bc 	strh	r3, [r4, #12]
  30447c:	e5845064 	str	r5, [r4, #100]	; 0x64
  304480:	e5845000 	str	r5, [r4]
  304484:	e5845008 	str	r5, [r4, #8]
  304488:	e5845004 	str	r5, [r4, #4]
  30448c:	e5845010 	str	r5, [r4, #16]
  304490:	e5845014 	str	r5, [r4, #20]
  304494:	e5845018 	str	r5, [r4, #24]
  304498:	e1a01005 	mov	r1, r5
  30449c:	e284005c 	add	r0, r4, #92	; 0x5c
  3044a0:	e3a02008 	mov	r2, #8
  3044a4:	eb000445 	bl	3055c0 <memset>
  3044a8:	e1a00004 	mov	r0, r4
  3044ac:	e5845030 	str	r5, [r4, #48]	; 0x30
  3044b0:	e5845034 	str	r5, [r4, #52]	; 0x34
  3044b4:	e5845044 	str	r5, [r4, #68]	; 0x44
  3044b8:	e5845048 	str	r5, [r4, #72]	; 0x48
  3044bc:	e8bd4070 	pop	{r4, r5, r6, lr}
  3044c0:	e12fff1e 	bx	lr
  3044c4:	e5953000 	ldr	r3, [r5]
  3044c8:	e3530000 	cmp	r3, #0
  3044cc:	11a05003 	movne	r5, r3
  3044d0:	1affffd8 	bne	304438 <__sfp+0x24>
  3044d4:	e1a00006 	mov	r0, r6
  3044d8:	e3a01004 	mov	r1, #4
  3044dc:	ebffffb9 	bl	3043c8 <__sfmoreglue>
  3044e0:	e3500000 	cmp	r0, #0
  3044e4:	e5850000 	str	r0, [r5]
  3044e8:	11a05000 	movne	r5, r0
  3044ec:	1affffd1 	bne	304438 <__sfp+0x24>
  3044f0:	e3a0300c 	mov	r3, #12
  3044f4:	e5863000 	str	r3, [r6]
  3044f8:	eaffffef 	b	3044bc <__sfp+0xa8>
  3044fc:	0030a020 	eorseq	sl, r0, r0, lsr #32

00304500 <_cleanup>:
  304500:	e92d4008 	push	{r3, lr}
  304504:	e59f3010 	ldr	r3, [pc, #16]	; 30451c <_cleanup+0x1c>
  304508:	e59f1010 	ldr	r1, [pc, #16]	; 304520 <_cleanup+0x20>
  30450c:	e5930000 	ldr	r0, [r3]
  304510:	eb00010c 	bl	304948 <_fwalk>
  304514:	e8bd4008 	pop	{r3, lr}
  304518:	e12fff1e 	bx	lr
  30451c:	0030a020 	eorseq	sl, r0, r0, lsr #32
  304520:	00307dd8 	ldrsbteq	r7, [r0], -r8

00304524 <__sinit>:
  304524:	e5903038 	ldr	r3, [r0, #56]	; 0x38
  304528:	e3530000 	cmp	r3, #0
  30452c:	112fff1e 	bxne	lr
  304530:	eaffff4c 	b	304268 <__sinit.part.1>

00304534 <__sfp_lock_acquire>:
  304534:	e12fff1e 	bx	lr

00304538 <__sfp_lock_release>:
  304538:	e12fff1e 	bx	lr

0030453c <__sinit_lock_acquire>:
  30453c:	e12fff1e 	bx	lr

00304540 <__sinit_lock_release>:
  304540:	e12fff1e 	bx	lr

00304544 <__fp_lock_all>:
  304544:	e92d4008 	push	{r3, lr}
  304548:	e59f3010 	ldr	r3, [pc, #16]	; 304560 <__fp_lock_all+0x1c>
  30454c:	e59f1010 	ldr	r1, [pc, #16]	; 304564 <__fp_lock_all+0x20>
  304550:	e5930000 	ldr	r0, [r3]
  304554:	eb0000fb 	bl	304948 <_fwalk>
  304558:	e8bd4008 	pop	{r3, lr}
  30455c:	e12fff1e 	bx	lr
  304560:	0030b000 	eorseq	fp, r0, r0
  304564:	00304240 	eorseq	r4, r0, r0, asr #4

00304568 <__fp_unlock_all>:
  304568:	e92d4008 	push	{r3, lr}
  30456c:	e59f3010 	ldr	r3, [pc, #16]	; 304584 <__fp_unlock_all+0x1c>
  304570:	e59f1010 	ldr	r1, [pc, #16]	; 304588 <__fp_unlock_all+0x20>
  304574:	e5930000 	ldr	r0, [r3]
  304578:	eb0000f2 	bl	304948 <_fwalk>
  30457c:	e8bd4008 	pop	{r3, lr}
  304580:	e12fff1e 	bx	lr
  304584:	0030b000 	eorseq	fp, r0, r0
  304588:	00304248 	eorseq	r4, r0, r8, asr #4

0030458c <_malloc_trim_r>:
  30458c:	e92d40f8 	push	{r3, r4, r5, r6, r7, lr}
  304590:	e1a04001 	mov	r4, r1
  304594:	e59f70e4 	ldr	r7, [pc, #228]	; 304680 <_malloc_trim_r+0xf4>
  304598:	e1a05000 	mov	r5, r0
  30459c:	eb000444 	bl	3056b4 <__malloc_lock>
  3045a0:	e5973008 	ldr	r3, [r7, #8]
  3045a4:	e5936004 	ldr	r6, [r3, #4]
  3045a8:	e3c66003 	bic	r6, r6, #3
  3045ac:	e0644006 	rsb	r4, r4, r6
  3045b0:	e2844efe 	add	r4, r4, #4064	; 0xfe0
  3045b4:	e284400f 	add	r4, r4, #15
  3045b8:	e1a04624 	lsr	r4, r4, #12
  3045bc:	e2444001 	sub	r4, r4, #1
  3045c0:	e1a04604 	lsl	r4, r4, #12
  3045c4:	e3540a01 	cmp	r4, #4096	; 0x1000
  3045c8:	ba000006 	blt	3045e8 <_malloc_trim_r+0x5c>
  3045cc:	e1a00005 	mov	r0, r5
  3045d0:	e3a01000 	mov	r1, #0
  3045d4:	eb0007b0 	bl	30649c <_sbrk_r>
  3045d8:	e5973008 	ldr	r3, [r7, #8]
  3045dc:	e0833006 	add	r3, r3, r6
  3045e0:	e1500003 	cmp	r0, r3
  3045e4:	0a000004 	beq	3045fc <_malloc_trim_r+0x70>
  3045e8:	e1a00005 	mov	r0, r5
  3045ec:	eb000431 	bl	3056b8 <__malloc_unlock>
  3045f0:	e3a00000 	mov	r0, #0
  3045f4:	e8bd40f8 	pop	{r3, r4, r5, r6, r7, lr}
  3045f8:	e12fff1e 	bx	lr
  3045fc:	e1a00005 	mov	r0, r5
  304600:	e2641000 	rsb	r1, r4, #0
  304604:	eb0007a4 	bl	30649c <_sbrk_r>
  304608:	e3700001 	cmn	r0, #1
  30460c:	0a00000c 	beq	304644 <_malloc_trim_r+0xb8>
  304610:	e59f206c 	ldr	r2, [pc, #108]	; 304684 <_malloc_trim_r+0xf8>
  304614:	e5971008 	ldr	r1, [r7, #8]
  304618:	e5923000 	ldr	r3, [r2]
  30461c:	e0646006 	rsb	r6, r4, r6
  304620:	e3866001 	orr	r6, r6, #1
  304624:	e1a00005 	mov	r0, r5
  304628:	e0644003 	rsb	r4, r4, r3
  30462c:	e5816004 	str	r6, [r1, #4]
  304630:	e5824000 	str	r4, [r2]
  304634:	eb00041f 	bl	3056b8 <__malloc_unlock>
  304638:	e3a00001 	mov	r0, #1
  30463c:	e8bd40f8 	pop	{r3, r4, r5, r6, r7, lr}
  304640:	e12fff1e 	bx	lr
  304644:	e1a00005 	mov	r0, r5
  304648:	e3a01000 	mov	r1, #0
  30464c:	eb000792 	bl	30649c <_sbrk_r>
  304650:	e5972008 	ldr	r2, [r7, #8]
  304654:	e0623000 	rsb	r3, r2, r0
  304658:	e353000f 	cmp	r3, #15
  30465c:	daffffe1 	ble	3045e8 <_malloc_trim_r+0x5c>
  304660:	e59f1020 	ldr	r1, [pc, #32]	; 304688 <_malloc_trim_r+0xfc>
  304664:	e591c000 	ldr	ip, [r1]
  304668:	e59f1014 	ldr	r1, [pc, #20]	; 304684 <_malloc_trim_r+0xf8>
  30466c:	e3833001 	orr	r3, r3, #1
  304670:	e06c0000 	rsb	r0, ip, r0
  304674:	e5823004 	str	r3, [r2, #4]
  304678:	e5810000 	str	r0, [r1]
  30467c:	eaffffd9 	b	3045e8 <_malloc_trim_r+0x5c>
  304680:	0030b474 	eorseq	fp, r0, r4, ror r4
  304684:	0030c088 	eorseq	ip, r0, r8, lsl #1
  304688:	0030b87c 	eorseq	fp, r0, ip, ror r8

0030468c <_free_r>:
  30468c:	e3510000 	cmp	r1, #0
  304690:	012fff1e 	bxeq	lr
  304694:	e92d4070 	push	{r4, r5, r6, lr}
  304698:	e1a04001 	mov	r4, r1
  30469c:	e1a05000 	mov	r5, r0
  3046a0:	eb000403 	bl	3056b4 <__malloc_lock>
  3046a4:	e5141004 	ldr	r1, [r4, #-4]
  3046a8:	e59f0284 	ldr	r0, [pc, #644]	; 304934 <_free_r+0x2a8>
  3046ac:	e3c12001 	bic	r2, r1, #1
  3046b0:	e244c008 	sub	ip, r4, #8
  3046b4:	e08ce002 	add	lr, ip, r2
  3046b8:	e5906008 	ldr	r6, [r0, #8]
  3046bc:	e59e3004 	ldr	r3, [lr, #4]
  3046c0:	e156000e 	cmp	r6, lr
  3046c4:	e3c33003 	bic	r3, r3, #3
  3046c8:	0a00004c 	beq	304800 <_free_r+0x174>
  3046cc:	e3110001 	tst	r1, #1
  3046d0:	e58e3004 	str	r3, [lr, #4]
  3046d4:	1a000009 	bne	304700 <_free_r+0x74>
  3046d8:	e5144008 	ldr	r4, [r4, #-8]
  3046dc:	e064c00c 	rsb	ip, r4, ip
  3046e0:	e59c1008 	ldr	r1, [ip, #8]
  3046e4:	e2806008 	add	r6, r0, #8
  3046e8:	e1510006 	cmp	r1, r6
  3046ec:	e0822004 	add	r2, r2, r4
  3046f0:	0a000058 	beq	304858 <_free_r+0x1cc>
  3046f4:	e59c400c 	ldr	r4, [ip, #12]
  3046f8:	e581400c 	str	r4, [r1, #12]
  3046fc:	e5841008 	str	r1, [r4, #8]
  304700:	e08e1003 	add	r1, lr, r3
  304704:	e5911004 	ldr	r1, [r1, #4]
  304708:	e3110001 	tst	r1, #1
  30470c:	1a00000b 	bne	304740 <_free_r+0xb4>
  304710:	e59f4220 	ldr	r4, [pc, #544]	; 304938 <_free_r+0x2ac>
  304714:	e59e1008 	ldr	r1, [lr, #8]
  304718:	e1510004 	cmp	r1, r4
  30471c:	e0822003 	add	r2, r2, r3
  304720:	0a00006e 	beq	3048e0 <_free_r+0x254>
  304724:	e59ee00c 	ldr	lr, [lr, #12]
  304728:	e3823001 	orr	r3, r2, #1
  30472c:	e581e00c 	str	lr, [r1, #12]
  304730:	e58e1008 	str	r1, [lr, #8]
  304734:	e58c3004 	str	r3, [ip, #4]
  304738:	e78c2002 	str	r2, [ip, r2]
  30473c:	ea000002 	b	30474c <_free_r+0xc0>
  304740:	e3823001 	orr	r3, r2, #1
  304744:	e58c3004 	str	r3, [ip, #4]
  304748:	e78c2002 	str	r2, [ip, r2]
  30474c:	e3520c02 	cmp	r2, #512	; 0x200
  304750:	2a00000f 	bcs	304794 <_free_r+0x108>
  304754:	e3a04001 	mov	r4, #1
  304758:	e1a021a2 	lsr	r2, r2, #3
  30475c:	e0803182 	add	r3, r0, r2, lsl #3
  304760:	e5901004 	ldr	r1, [r0, #4]
  304764:	e593e008 	ldr	lr, [r3, #8]
  304768:	e1a02142 	asr	r2, r2, #2
  30476c:	e1812214 	orr	r2, r1, r4, lsl r2
  304770:	e58ce008 	str	lr, [ip, #8]
  304774:	e58c300c 	str	r3, [ip, #12]
  304778:	e5802004 	str	r2, [r0, #4]
  30477c:	e583c008 	str	ip, [r3, #8]
  304780:	e58ec00c 	str	ip, [lr, #12]
  304784:	e1a00005 	mov	r0, r5
  304788:	eb0003ca 	bl	3056b8 <__malloc_unlock>
  30478c:	e8bd4070 	pop	{r4, r5, r6, lr}
  304790:	e12fff1e 	bx	lr
  304794:	e1a034a2 	lsr	r3, r2, #9
  304798:	e3530004 	cmp	r3, #4
  30479c:	8a00003e 	bhi	30489c <_free_r+0x210>
  3047a0:	e1a03322 	lsr	r3, r2, #6
  3047a4:	e2831038 	add	r1, r3, #56	; 0x38
  3047a8:	e1a03081 	lsl	r3, r1, #1
  3047ac:	e0800103 	add	r0, r0, r3, lsl #2
  3047b0:	e5903008 	ldr	r3, [r0, #8]
  3047b4:	e1530000 	cmp	r3, r0
  3047b8:	e59fe174 	ldr	lr, [pc, #372]	; 304934 <_free_r+0x2a8>
  3047bc:	0a000040 	beq	3048c4 <_free_r+0x238>
  3047c0:	e5931004 	ldr	r1, [r3, #4]
  3047c4:	e3c11003 	bic	r1, r1, #3
  3047c8:	e1510002 	cmp	r1, r2
  3047cc:	9a000002 	bls	3047dc <_free_r+0x150>
  3047d0:	e5933008 	ldr	r3, [r3, #8]
  3047d4:	e1500003 	cmp	r0, r3
  3047d8:	1afffff8 	bne	3047c0 <_free_r+0x134>
  3047dc:	e593200c 	ldr	r2, [r3, #12]
  3047e0:	e58c200c 	str	r2, [ip, #12]
  3047e4:	e58c3008 	str	r3, [ip, #8]
  3047e8:	e1a00005 	mov	r0, r5
  3047ec:	e582c008 	str	ip, [r2, #8]
  3047f0:	e583c00c 	str	ip, [r3, #12]
  3047f4:	eb0003af 	bl	3056b8 <__malloc_unlock>
  3047f8:	e8bd4070 	pop	{r4, r5, r6, lr}
  3047fc:	e12fff1e 	bx	lr
  304800:	e3110001 	tst	r1, #1
  304804:	e0832002 	add	r2, r3, r2
  304808:	1a000006 	bne	304828 <_free_r+0x19c>
  30480c:	e5143008 	ldr	r3, [r4, #-8]
  304810:	e063c00c 	rsb	ip, r3, ip
  304814:	e59c100c 	ldr	r1, [ip, #12]
  304818:	e59ce008 	ldr	lr, [ip, #8]
  30481c:	e58e100c 	str	r1, [lr, #12]
  304820:	e581e008 	str	lr, [r1, #8]
  304824:	e0822003 	add	r2, r2, r3
  304828:	e59f310c 	ldr	r3, [pc, #268]	; 30493c <_free_r+0x2b0>
  30482c:	e5931000 	ldr	r1, [r3]
  304830:	e3823001 	orr	r3, r2, #1
  304834:	e1520001 	cmp	r2, r1
  304838:	e58c3004 	str	r3, [ip, #4]
  30483c:	e580c008 	str	ip, [r0, #8]
  304840:	3affffcf 	bcc	304784 <_free_r+0xf8>
  304844:	e59f30f4 	ldr	r3, [pc, #244]	; 304940 <_free_r+0x2b4>
  304848:	e1a00005 	mov	r0, r5
  30484c:	e5931000 	ldr	r1, [r3]
  304850:	ebffff4d 	bl	30458c <_malloc_trim_r>
  304854:	eaffffca 	b	304784 <_free_r+0xf8>
  304858:	e08e1003 	add	r1, lr, r3
  30485c:	e5911004 	ldr	r1, [r1, #4]
  304860:	e3110001 	tst	r1, #1
  304864:	1a000008 	bne	30488c <_free_r+0x200>
  304868:	e28e1008 	add	r1, lr, #8
  30486c:	e0823003 	add	r3, r2, r3
  304870:	e8910006 	ldm	r1, {r1, r2}
  304874:	e3830001 	orr	r0, r3, #1
  304878:	e581200c 	str	r2, [r1, #12]
  30487c:	e5821008 	str	r1, [r2, #8]
  304880:	e58c0004 	str	r0, [ip, #4]
  304884:	e78c3003 	str	r3, [ip, r3]
  304888:	eaffffbd 	b	304784 <_free_r+0xf8>
  30488c:	e3823001 	orr	r3, r2, #1
  304890:	e58c3004 	str	r3, [ip, #4]
  304894:	e78c2002 	str	r2, [ip, r2]
  304898:	eaffffb9 	b	304784 <_free_r+0xf8>
  30489c:	e3530014 	cmp	r3, #20
  3048a0:	9283105b 	addls	r1, r3, #91	; 0x5b
  3048a4:	91a03081 	lslls	r3, r1, #1
  3048a8:	9affffbf 	bls	3047ac <_free_r+0x120>
  3048ac:	e3530054 	cmp	r3, #84	; 0x54
  3048b0:	8a000012 	bhi	304900 <_free_r+0x274>
  3048b4:	e1a03622 	lsr	r3, r2, #12
  3048b8:	e283106e 	add	r1, r3, #110	; 0x6e
  3048bc:	e1a03081 	lsl	r3, r1, #1
  3048c0:	eaffffb9 	b	3047ac <_free_r+0x120>
  3048c4:	e3a00001 	mov	r0, #1
  3048c8:	e59e2004 	ldr	r2, [lr, #4]
  3048cc:	e1a01141 	asr	r1, r1, #2
  3048d0:	e1821110 	orr	r1, r2, r0, lsl r1
  3048d4:	e58e1004 	str	r1, [lr, #4]
  3048d8:	e1a02003 	mov	r2, r3
  3048dc:	eaffffbf 	b	3047e0 <_free_r+0x154>
  3048e0:	e3823001 	orr	r3, r2, #1
  3048e4:	e580c014 	str	ip, [r0, #20]
  3048e8:	e580c010 	str	ip, [r0, #16]
  3048ec:	e58c100c 	str	r1, [ip, #12]
  3048f0:	e58c1008 	str	r1, [ip, #8]
  3048f4:	e58c3004 	str	r3, [ip, #4]
  3048f8:	e78c2002 	str	r2, [ip, r2]
  3048fc:	eaffffa0 	b	304784 <_free_r+0xf8>
  304900:	e3530f55 	cmp	r3, #340	; 0x154
  304904:	91a037a2 	lsrls	r3, r2, #15
  304908:	92831077 	addls	r1, r3, #119	; 0x77
  30490c:	91a03081 	lslls	r3, r1, #1
  304910:	9affffa5 	bls	3047ac <_free_r+0x120>
  304914:	e59f1028 	ldr	r1, [pc, #40]	; 304944 <_free_r+0x2b8>
  304918:	e1530001 	cmp	r3, r1
  30491c:	91a03922 	lsrls	r3, r2, #18
  304920:	9283107c 	addls	r1, r3, #124	; 0x7c
  304924:	91a03081 	lslls	r3, r1, #1
  304928:	83a030fc 	movhi	r3, #252	; 0xfc
  30492c:	83a0107e 	movhi	r1, #126	; 0x7e
  304930:	eaffff9d 	b	3047ac <_free_r+0x120>
  304934:	0030b474 	eorseq	fp, r0, r4, ror r4
  304938:	0030b47c 	eorseq	fp, r0, ip, ror r4
  30493c:	0030b880 	eorseq	fp, r0, r0, lsl #17
  304940:	0030c084 	eorseq	ip, r0, r4, lsl #1
  304944:	00000554 	andeq	r0, r0, r4, asr r5

00304948 <_fwalk>:
  304948:	e92d41f0 	push	{r4, r5, r6, r7, r8, lr}
  30494c:	e1a06000 	mov	r6, r0
  304950:	e1a07001 	mov	r7, r1
  304954:	ebfffef6 	bl	304534 <__sfp_lock_acquire>
  304958:	e2966e2e 	adds	r6, r6, #736	; 0x2e0
  30495c:	0a000019 	beq	3049c8 <_fwalk+0x80>
  304960:	e3a08000 	mov	r8, #0
  304964:	e5965004 	ldr	r5, [r6, #4]
  304968:	e2555001 	subs	r5, r5, #1
  30496c:	e5964008 	ldr	r4, [r6, #8]
  304970:	4a00000d 	bmi	3049ac <_fwalk+0x64>
  304974:	e1d430fc 	ldrsh	r3, [r4, #12]
  304978:	e3530000 	cmp	r3, #0
  30497c:	e2455001 	sub	r5, r5, #1
  304980:	0a000006 	beq	3049a0 <_fwalk+0x58>
  304984:	e1d430fe 	ldrsh	r3, [r4, #14]
  304988:	e3730001 	cmn	r3, #1
  30498c:	0a000003 	beq	3049a0 <_fwalk+0x58>
  304990:	e1a00004 	mov	r0, r4
  304994:	e1a0e00f 	mov	lr, pc
  304998:	e12fff17 	bx	r7
  30499c:	e1888000 	orr	r8, r8, r0
  3049a0:	e3750001 	cmn	r5, #1
  3049a4:	e2844068 	add	r4, r4, #104	; 0x68
  3049a8:	1afffff1 	bne	304974 <_fwalk+0x2c>
  3049ac:	e5966000 	ldr	r6, [r6]
  3049b0:	e3560000 	cmp	r6, #0
  3049b4:	1affffea 	bne	304964 <_fwalk+0x1c>
  3049b8:	ebfffede 	bl	304538 <__sfp_lock_release>
  3049bc:	e1a00008 	mov	r0, r8
  3049c0:	e8bd41f0 	pop	{r4, r5, r6, r7, r8, lr}
  3049c4:	e12fff1e 	bx	lr
  3049c8:	e1a08006 	mov	r8, r6
  3049cc:	ebfffed9 	bl	304538 <__sfp_lock_release>
  3049d0:	e1a00008 	mov	r0, r8
  3049d4:	e8bd41f0 	pop	{r4, r5, r6, r7, r8, lr}
  3049d8:	e12fff1e 	bx	lr

003049dc <_fwalk_reent>:
  3049dc:	e92d43f8 	push	{r3, r4, r5, r6, r7, r8, r9, lr}
  3049e0:	e1a07000 	mov	r7, r0
  3049e4:	e1a08001 	mov	r8, r1
  3049e8:	ebfffed1 	bl	304534 <__sfp_lock_acquire>
  3049ec:	e2976e2e 	adds	r6, r7, #736	; 0x2e0
  3049f0:	0a00001a 	beq	304a60 <_fwalk_reent+0x84>
  3049f4:	e3a09000 	mov	r9, #0
  3049f8:	e5965004 	ldr	r5, [r6, #4]
  3049fc:	e2555001 	subs	r5, r5, #1
  304a00:	e5964008 	ldr	r4, [r6, #8]
  304a04:	4a00000e 	bmi	304a44 <_fwalk_reent+0x68>
  304a08:	e1d430fc 	ldrsh	r3, [r4, #12]
  304a0c:	e3530000 	cmp	r3, #0
  304a10:	e2455001 	sub	r5, r5, #1
  304a14:	0a000007 	beq	304a38 <_fwalk_reent+0x5c>
  304a18:	e1d430fe 	ldrsh	r3, [r4, #14]
  304a1c:	e3730001 	cmn	r3, #1
  304a20:	0a000004 	beq	304a38 <_fwalk_reent+0x5c>
  304a24:	e1a00007 	mov	r0, r7
  304a28:	e1a01004 	mov	r1, r4
  304a2c:	e1a0e00f 	mov	lr, pc
  304a30:	e12fff18 	bx	r8
  304a34:	e1899000 	orr	r9, r9, r0
  304a38:	e3750001 	cmn	r5, #1
  304a3c:	e2844068 	add	r4, r4, #104	; 0x68
  304a40:	1afffff0 	bne	304a08 <_fwalk_reent+0x2c>
  304a44:	e5966000 	ldr	r6, [r6]
  304a48:	e3560000 	cmp	r6, #0
  304a4c:	1affffe9 	bne	3049f8 <_fwalk_reent+0x1c>
  304a50:	ebfffeb8 	bl	304538 <__sfp_lock_release>
  304a54:	e1a00009 	mov	r0, r9
  304a58:	e8bd43f8 	pop	{r3, r4, r5, r6, r7, r8, r9, lr}
  304a5c:	e12fff1e 	bx	lr
  304a60:	e1a09006 	mov	r9, r6
  304a64:	ebfffeb3 	bl	304538 <__sfp_lock_release>
  304a68:	e1a00009 	mov	r0, r9
  304a6c:	e8bd43f8 	pop	{r3, r4, r5, r6, r7, r8, r9, lr}
  304a70:	e12fff1e 	bx	lr

00304a74 <_setlocale_r>:
  304a74:	e3520000 	cmp	r2, #0
  304a78:	0a000017 	beq	304adc <_setlocale_r+0x68>
  304a7c:	e92d4010 	push	{r4, lr}
  304a80:	e1a00002 	mov	r0, r2
  304a84:	e59f1058 	ldr	r1, [pc, #88]	; 304ae4 <_setlocale_r+0x70>
  304a88:	e1a04002 	mov	r4, r2
  304a8c:	eb0006c9 	bl	3065b8 <strcmp>
  304a90:	e3500000 	cmp	r0, #0
  304a94:	1a000002 	bne	304aa4 <_setlocale_r+0x30>
  304a98:	e59f0048 	ldr	r0, [pc, #72]	; 304ae8 <_setlocale_r+0x74>
  304a9c:	e8bd4010 	pop	{r4, lr}
  304aa0:	e12fff1e 	bx	lr
  304aa4:	e1a00004 	mov	r0, r4
  304aa8:	e59f1038 	ldr	r1, [pc, #56]	; 304ae8 <_setlocale_r+0x74>
  304aac:	eb0006c1 	bl	3065b8 <strcmp>
  304ab0:	e3500000 	cmp	r0, #0
  304ab4:	0afffff7 	beq	304a98 <_setlocale_r+0x24>
  304ab8:	e1a00004 	mov	r0, r4
  304abc:	e59f1028 	ldr	r1, [pc, #40]	; 304aec <_setlocale_r+0x78>
  304ac0:	eb0006bc 	bl	3065b8 <strcmp>
  304ac4:	e59f301c 	ldr	r3, [pc, #28]	; 304ae8 <_setlocale_r+0x74>
  304ac8:	e3500000 	cmp	r0, #0
  304acc:	01a00003 	moveq	r0, r3
  304ad0:	13a00000 	movne	r0, #0
  304ad4:	e8bd4010 	pop	{r4, lr}
  304ad8:	e12fff1e 	bx	lr
  304adc:	e59f0004 	ldr	r0, [pc, #4]	; 304ae8 <_setlocale_r+0x74>
  304ae0:	e12fff1e 	bx	lr
  304ae4:	0030a2cc 	eorseq	sl, r0, ip, asr #5
  304ae8:	0030a2c8 	eorseq	sl, r0, r8, asr #5
  304aec:	0030a250 	eorseq	sl, r0, r0, asr r2

00304af0 <__locale_charset>:
  304af0:	e59f0000 	ldr	r0, [pc]	; 304af8 <__locale_charset+0x8>
  304af4:	e12fff1e 	bx	lr
  304af8:	0030b430 	eorseq	fp, r0, r0, lsr r4

00304afc <__locale_msgcharset>:
  304afc:	e59f0000 	ldr	r0, [pc]	; 304b04 <__locale_msgcharset+0x8>
  304b00:	e12fff1e 	bx	lr
  304b04:	0030b450 	eorseq	fp, r0, r0, asr r4

00304b08 <__locale_cjk_lang>:
  304b08:	e3a00000 	mov	r0, #0
  304b0c:	e12fff1e 	bx	lr

00304b10 <_localeconv_r>:
  304b10:	e59f0000 	ldr	r0, [pc]	; 304b18 <_localeconv_r+0x8>
  304b14:	e12fff1e 	bx	lr
  304b18:	0030a024 	eorseq	sl, r0, r4, lsr #32

00304b1c <setlocale>:
  304b1c:	e59f300c 	ldr	r3, [pc, #12]	; 304b30 <setlocale+0x14>
  304b20:	e1a02001 	mov	r2, r1
  304b24:	e1a01000 	mov	r1, r0
  304b28:	e5930000 	ldr	r0, [r3]
  304b2c:	eaffffd0 	b	304a74 <_setlocale_r>
  304b30:	0030b000 	eorseq	fp, r0, r0

00304b34 <localeconv>:
  304b34:	e59f0000 	ldr	r0, [pc]	; 304b3c <localeconv+0x8>
  304b38:	e12fff1e 	bx	lr
  304b3c:	0030a024 	eorseq	sl, r0, r4, lsr #32

00304b40 <__smakebuf_r>:
  304b40:	e1d130bc 	ldrh	r3, [r1, #12]
  304b44:	e3130002 	tst	r3, #2
  304b48:	e1a02003 	mov	r2, r3
  304b4c:	1a000030 	bne	304c14 <__smakebuf_r+0xd4>
  304b50:	e92d40f0 	push	{r4, r5, r6, r7, lr}
  304b54:	e1a04001 	mov	r4, r1
  304b58:	e1d110fe 	ldrsh	r1, [r1, #14]
  304b5c:	e3510000 	cmp	r1, #0
  304b60:	e24dd044 	sub	sp, sp, #68	; 0x44
  304b64:	e1a05000 	mov	r5, r0
  304b68:	ba000011 	blt	304bb4 <__smakebuf_r+0x74>
  304b6c:	e28d2004 	add	r2, sp, #4
  304b70:	eb000d03 	bl	307f84 <_fstat_r>
  304b74:	e3500000 	cmp	r0, #0
  304b78:	ba00000b 	blt	304bac <__smakebuf_r+0x6c>
  304b7c:	e59d3008 	ldr	r3, [sp, #8]
  304b80:	e2033a0f 	and	r3, r3, #61440	; 0xf000
  304b84:	e2432a02 	sub	r2, r3, #8192	; 0x2000
  304b88:	e2727000 	rsbs	r7, r2, #0
  304b8c:	e0a77002 	adc	r7, r7, r2
  304b90:	e3530902 	cmp	r3, #32768	; 0x8000
  304b94:	e3a06b01 	mov	r6, #1024	; 0x400
  304b98:	0a000023 	beq	304c2c <__smakebuf_r+0xec>
  304b9c:	e1d430bc 	ldrh	r3, [r4, #12]
  304ba0:	e3833b02 	orr	r3, r3, #2048	; 0x800
  304ba4:	e1c430bc 	strh	r3, [r4, #12]
  304ba8:	ea000007 	b	304bcc <__smakebuf_r+0x8c>
  304bac:	e1d430bc 	ldrh	r3, [r4, #12]
  304bb0:	e1a02003 	mov	r2, r3
  304bb4:	e3120080 	tst	r2, #128	; 0x80
  304bb8:	03a06b01 	moveq	r6, #1024	; 0x400
  304bbc:	13a06040 	movne	r6, #64	; 0x40
  304bc0:	e3a07000 	mov	r7, #0
  304bc4:	e3833b02 	orr	r3, r3, #2048	; 0x800
  304bc8:	e1c430bc 	strh	r3, [r4, #12]
  304bcc:	e1a00005 	mov	r0, r5
  304bd0:	e1a01006 	mov	r1, r6
  304bd4:	eb000033 	bl	304ca8 <_malloc_r>
  304bd8:	e3500000 	cmp	r0, #0
  304bdc:	e1d430bc 	ldrh	r3, [r4, #12]
  304be0:	0a000024 	beq	304c78 <__smakebuf_r+0x138>
  304be4:	e59f20b4 	ldr	r2, [pc, #180]	; 304ca0 <__smakebuf_r+0x160>
  304be8:	e3833080 	orr	r3, r3, #128	; 0x80
  304bec:	e3570000 	cmp	r7, #0
  304bf0:	e585203c 	str	r2, [r5, #60]	; 0x3c
  304bf4:	e1c430bc 	strh	r3, [r4, #12]
  304bf8:	e5840000 	str	r0, [r4]
  304bfc:	e5840010 	str	r0, [r4, #16]
  304c00:	e5846014 	str	r6, [r4, #20]
  304c04:	1a000011 	bne	304c50 <__smakebuf_r+0x110>
  304c08:	e28dd044 	add	sp, sp, #68	; 0x44
  304c0c:	e8bd40f0 	pop	{r4, r5, r6, r7, lr}
  304c10:	e12fff1e 	bx	lr
  304c14:	e3a02001 	mov	r2, #1
  304c18:	e2813043 	add	r3, r1, #67	; 0x43
  304c1c:	e5812014 	str	r2, [r1, #20]
  304c20:	e5813000 	str	r3, [r1]
  304c24:	e5813010 	str	r3, [r1, #16]
  304c28:	e12fff1e 	bx	lr
  304c2c:	e59f3070 	ldr	r3, [pc, #112]	; 304ca4 <__smakebuf_r+0x164>
  304c30:	e5942028 	ldr	r2, [r4, #40]	; 0x28
  304c34:	e1520003 	cmp	r2, r3
  304c38:	1affffd7 	bne	304b9c <__smakebuf_r+0x5c>
  304c3c:	e1d430bc 	ldrh	r3, [r4, #12]
  304c40:	e1833006 	orr	r3, r3, r6
  304c44:	e1c430bc 	strh	r3, [r4, #12]
  304c48:	e584604c 	str	r6, [r4, #76]	; 0x4c
  304c4c:	eaffffde 	b	304bcc <__smakebuf_r+0x8c>
  304c50:	e1a00005 	mov	r0, r5
  304c54:	e1d410fe 	ldrsh	r1, [r4, #14]
  304c58:	eb000e11 	bl	3084a4 <_isatty_r>
  304c5c:	e3500000 	cmp	r0, #0
  304c60:	11d430bc 	ldrhne	r3, [r4, #12]
  304c64:	13833001 	orrne	r3, r3, #1
  304c68:	11c430bc 	strhne	r3, [r4, #12]
  304c6c:	e28dd044 	add	sp, sp, #68	; 0x44
  304c70:	e8bd40f0 	pop	{r4, r5, r6, r7, lr}
  304c74:	e12fff1e 	bx	lr
  304c78:	e3130c02 	tst	r3, #512	; 0x200
  304c7c:	1affffe1 	bne	304c08 <__smakebuf_r+0xc8>
  304c80:	e3a01001 	mov	r1, #1
  304c84:	e2842043 	add	r2, r4, #67	; 0x43
  304c88:	e3833002 	orr	r3, r3, #2
  304c8c:	e1c430bc 	strh	r3, [r4, #12]
  304c90:	e5841014 	str	r1, [r4, #20]
  304c94:	e5842000 	str	r2, [r4]
  304c98:	e5842010 	str	r2, [r4, #16]
  304c9c:	eaffffd9 	b	304c08 <__smakebuf_r+0xc8>
  304ca0:	00304250 	eorseq	r4, r0, r0, asr r2
  304ca4:	00306574 	eorseq	r6, r0, r4, ror r5

00304ca8 <_malloc_r>:
  304ca8:	e92d4ff0 	push	{r4, r5, r6, r7, r8, r9, sl, fp, lr}
  304cac:	e281500b 	add	r5, r1, #11
  304cb0:	e3550016 	cmp	r5, #22
  304cb4:	e24dd00c 	sub	sp, sp, #12
  304cb8:	e1a06000 	mov	r6, r0
  304cbc:	9a00001f 	bls	304d40 <_malloc_r+0x98>
  304cc0:	e3c55007 	bic	r5, r5, #7
  304cc4:	e1510005 	cmp	r1, r5
  304cc8:	93a01000 	movls	r1, #0
  304ccc:	83a01001 	movhi	r1, #1
  304cd0:	e1913fa5 	orrs	r3, r1, r5, lsr #31
  304cd4:	1a000083 	bne	304ee8 <_malloc_r+0x240>
  304cd8:	eb000275 	bl	3056b4 <__malloc_lock>
  304cdc:	e3550f7e 	cmp	r5, #504	; 0x1f8
  304ce0:	2a00001b 	bcs	304d54 <_malloc_r+0xac>
  304ce4:	e59f76e4 	ldr	r7, [pc, #1764]	; 3053d0 <_malloc_r+0x728>
  304ce8:	e1a001a5 	lsr	r0, r5, #3
  304cec:	e0873180 	add	r3, r7, r0, lsl #3
  304cf0:	e593400c 	ldr	r4, [r3, #12]
  304cf4:	e1540003 	cmp	r4, r3
  304cf8:	0a00010d 	beq	305134 <_malloc_r+0x48c>
  304cfc:	e5943004 	ldr	r3, [r4, #4]
  304d00:	e3c33003 	bic	r3, r3, #3
  304d04:	e0843003 	add	r3, r4, r3
  304d08:	e5932004 	ldr	r2, [r3, #4]
  304d0c:	e594100c 	ldr	r1, [r4, #12]
  304d10:	e594c008 	ldr	ip, [r4, #8]
  304d14:	e3822001 	orr	r2, r2, #1
  304d18:	e58c100c 	str	r1, [ip, #12]
  304d1c:	e1a00006 	mov	r0, r6
  304d20:	e581c008 	str	ip, [r1, #8]
  304d24:	e5832004 	str	r2, [r3, #4]
  304d28:	eb000262 	bl	3056b8 <__malloc_unlock>
  304d2c:	e2844008 	add	r4, r4, #8
  304d30:	e1a00004 	mov	r0, r4
  304d34:	e28dd00c 	add	sp, sp, #12
  304d38:	e8bd4ff0 	pop	{r4, r5, r6, r7, r8, r9, sl, fp, lr}
  304d3c:	e12fff1e 	bx	lr
  304d40:	e3510010 	cmp	r1, #16
  304d44:	8a000067 	bhi	304ee8 <_malloc_r+0x240>
  304d48:	eb000259 	bl	3056b4 <__malloc_lock>
  304d4c:	e3a05010 	mov	r5, #16
  304d50:	eaffffe3 	b	304ce4 <_malloc_r+0x3c>
  304d54:	e1b004a5 	lsrs	r0, r5, #9
  304d58:	03a0107e 	moveq	r1, #126	; 0x7e
  304d5c:	03a0003f 	moveq	r0, #63	; 0x3f
  304d60:	1a000067 	bne	304f04 <_malloc_r+0x25c>
  304d64:	e59f7664 	ldr	r7, [pc, #1636]	; 3053d0 <_malloc_r+0x728>
  304d68:	e0871101 	add	r1, r7, r1, lsl #2
  304d6c:	e591400c 	ldr	r4, [r1, #12]
  304d70:	e1510004 	cmp	r1, r4
  304d74:	1a000005 	bne	304d90 <_malloc_r+0xe8>
  304d78:	ea00000a 	b	304da8 <_malloc_r+0x100>
  304d7c:	e3520000 	cmp	r2, #0
  304d80:	aaffffdf 	bge	304d04 <_malloc_r+0x5c>
  304d84:	e594400c 	ldr	r4, [r4, #12]
  304d88:	e1510004 	cmp	r1, r4
  304d8c:	0a000005 	beq	304da8 <_malloc_r+0x100>
  304d90:	e5943004 	ldr	r3, [r4, #4]
  304d94:	e3c33003 	bic	r3, r3, #3
  304d98:	e0652003 	rsb	r2, r5, r3
  304d9c:	e352000f 	cmp	r2, #15
  304da0:	dafffff5 	ble	304d7c <_malloc_r+0xd4>
  304da4:	e2400001 	sub	r0, r0, #1
  304da8:	e2800001 	add	r0, r0, #1
  304dac:	e59f161c 	ldr	r1, [pc, #1564]	; 3053d0 <_malloc_r+0x728>
  304db0:	e5974010 	ldr	r4, [r7, #16]
  304db4:	e281c008 	add	ip, r1, #8
  304db8:	e154000c 	cmp	r4, ip
  304dbc:	05913004 	ldreq	r3, [r1, #4]
  304dc0:	0a000016 	beq	304e20 <_malloc_r+0x178>
  304dc4:	e5943004 	ldr	r3, [r4, #4]
  304dc8:	e3c33003 	bic	r3, r3, #3
  304dcc:	e0652003 	rsb	r2, r5, r3
  304dd0:	e352000f 	cmp	r2, #15
  304dd4:	ca0000c4 	bgt	3050ec <_malloc_r+0x444>
  304dd8:	e3520000 	cmp	r2, #0
  304ddc:	e581c014 	str	ip, [r1, #20]
  304de0:	e581c010 	str	ip, [r1, #16]
  304de4:	aa00004c 	bge	304f1c <_malloc_r+0x274>
  304de8:	e3530c02 	cmp	r3, #512	; 0x200
  304dec:	2a00009f 	bcs	305070 <_malloc_r+0x3c8>
  304df0:	e3a09001 	mov	r9, #1
  304df4:	e1a0e1a3 	lsr	lr, r3, #3
  304df8:	e081818e 	add	r8, r1, lr, lsl #3
  304dfc:	e5912004 	ldr	r2, [r1, #4]
  304e00:	e1a0314e 	asr	r3, lr, #2
  304e04:	e598e008 	ldr	lr, [r8, #8]
  304e08:	e1823319 	orr	r3, r2, r9, lsl r3
  304e0c:	e584e008 	str	lr, [r4, #8]
  304e10:	e584800c 	str	r8, [r4, #12]
  304e14:	e5813004 	str	r3, [r1, #4]
  304e18:	e5884008 	str	r4, [r8, #8]
  304e1c:	e58e400c 	str	r4, [lr, #12]
  304e20:	e3a0e001 	mov	lr, #1
  304e24:	e1a02140 	asr	r2, r0, #2
  304e28:	e1a0e21e 	lsl	lr, lr, r2
  304e2c:	e15e0003 	cmp	lr, r3
  304e30:	8a000044 	bhi	304f48 <_malloc_r+0x2a0>
  304e34:	e113000e 	tst	r3, lr
  304e38:	1a000008 	bne	304e60 <_malloc_r+0x1b8>
  304e3c:	e1a0e08e 	lsl	lr, lr, #1
  304e40:	e3c00003 	bic	r0, r0, #3
  304e44:	e113000e 	tst	r3, lr
  304e48:	e2800004 	add	r0, r0, #4
  304e4c:	1a000003 	bne	304e60 <_malloc_r+0x1b8>
  304e50:	e1a0e08e 	lsl	lr, lr, #1
  304e54:	e113000e 	tst	r3, lr
  304e58:	e2800004 	add	r0, r0, #4
  304e5c:	0afffffb 	beq	304e50 <_malloc_r+0x1a8>
  304e60:	e0878180 	add	r8, r7, r0, lsl #3
  304e64:	e1a04008 	mov	r4, r8
  304e68:	e1a09000 	mov	r9, r0
  304e6c:	e594300c 	ldr	r3, [r4, #12]
  304e70:	e1540003 	cmp	r4, r3
  304e74:	1a000005 	bne	304e90 <_malloc_r+0x1e8>
  304e78:	ea0000a8 	b	305120 <_malloc_r+0x478>
  304e7c:	e3510000 	cmp	r1, #0
  304e80:	aa0000b1 	bge	30514c <_malloc_r+0x4a4>
  304e84:	e593300c 	ldr	r3, [r3, #12]
  304e88:	e1540003 	cmp	r4, r3
  304e8c:	0a0000a3 	beq	305120 <_malloc_r+0x478>
  304e90:	e5932004 	ldr	r2, [r3, #4]
  304e94:	e3c22003 	bic	r2, r2, #3
  304e98:	e0651002 	rsb	r1, r5, r2
  304e9c:	e351000f 	cmp	r1, #15
  304ea0:	dafffff5 	ble	304e7c <_malloc_r+0x1d4>
  304ea4:	e1a04003 	mov	r4, r3
  304ea8:	e593200c 	ldr	r2, [r3, #12]
  304eac:	e5b4e008 	ldr	lr, [r4, #8]!
  304eb0:	e3859001 	orr	r9, r5, #1
  304eb4:	e3818001 	orr	r8, r1, #1
  304eb8:	e0835005 	add	r5, r3, r5
  304ebc:	e5839004 	str	r9, [r3, #4]
  304ec0:	e1a00006 	mov	r0, r6
  304ec4:	e58e200c 	str	r2, [lr, #12]
  304ec8:	e582e008 	str	lr, [r2, #8]
  304ecc:	e5875014 	str	r5, [r7, #20]
  304ed0:	e5875010 	str	r5, [r7, #16]
  304ed4:	e585c00c 	str	ip, [r5, #12]
  304ed8:	e9851100 	stmib	r5, {r8, ip}
  304edc:	e7851001 	str	r1, [r5, r1]
  304ee0:	eb0001f4 	bl	3056b8 <__malloc_unlock>
  304ee4:	eaffff91 	b	304d30 <_malloc_r+0x88>
  304ee8:	e3a04000 	mov	r4, #0
  304eec:	e3a0300c 	mov	r3, #12
  304ef0:	e1a00004 	mov	r0, r4
  304ef4:	e5863000 	str	r3, [r6]
  304ef8:	e28dd00c 	add	sp, sp, #12
  304efc:	e8bd4ff0 	pop	{r4, r5, r6, r7, r8, r9, sl, fp, lr}
  304f00:	e12fff1e 	bx	lr
  304f04:	e3500004 	cmp	r0, #4
  304f08:	8a00004e 	bhi	305048 <_malloc_r+0x3a0>
  304f0c:	e1a00325 	lsr	r0, r5, #6
  304f10:	e2800038 	add	r0, r0, #56	; 0x38
  304f14:	e1a01080 	lsl	r1, r0, #1
  304f18:	eaffff91 	b	304d64 <_malloc_r+0xbc>
  304f1c:	e0843003 	add	r3, r4, r3
  304f20:	e5932004 	ldr	r2, [r3, #4]
  304f24:	e3822001 	orr	r2, r2, #1
  304f28:	e1a00006 	mov	r0, r6
  304f2c:	e5832004 	str	r2, [r3, #4]
  304f30:	e2844008 	add	r4, r4, #8
  304f34:	eb0001df 	bl	3056b8 <__malloc_unlock>
  304f38:	e1a00004 	mov	r0, r4
  304f3c:	e28dd00c 	add	sp, sp, #12
  304f40:	e8bd4ff0 	pop	{r4, r5, r6, r7, r8, r9, sl, fp, lr}
  304f44:	e12fff1e 	bx	lr
  304f48:	e5974008 	ldr	r4, [r7, #8]
  304f4c:	e5948004 	ldr	r8, [r4, #4]
  304f50:	e3c88003 	bic	r8, r8, #3
  304f54:	e1580005 	cmp	r8, r5
  304f58:	23a02000 	movcs	r2, #0
  304f5c:	33a02001 	movcc	r2, #1
  304f60:	e0653008 	rsb	r3, r5, r8
  304f64:	e353000f 	cmp	r3, #15
  304f68:	d3822001 	orrle	r2, r2, #1
  304f6c:	e3520000 	cmp	r2, #0
  304f70:	e59f2458 	ldr	r2, [pc, #1112]	; 3053d0 <_malloc_r+0x728>
  304f74:	0a000026 	beq	305014 <_malloc_r+0x36c>
  304f78:	e59f9454 	ldr	r9, [pc, #1108]	; 3053d4 <_malloc_r+0x72c>
  304f7c:	e5922408 	ldr	r2, [r2, #1032]	; 0x408
  304f80:	e5993000 	ldr	r3, [r9]
  304f84:	e3720001 	cmn	r2, #1
  304f88:	e0853003 	add	r3, r5, r3
  304f8c:	12833a01 	addne	r3, r3, #4096	; 0x1000
  304f90:	1283300f 	addne	r3, r3, #15
  304f94:	13c33eff 	bicne	r3, r3, #4080	; 0xff0
  304f98:	0283a010 	addeq	sl, r3, #16
  304f9c:	13c3a00f 	bicne	sl, r3, #15
  304fa0:	e1a00006 	mov	r0, r6
  304fa4:	e1a0100a 	mov	r1, sl
  304fa8:	eb00053b 	bl	30649c <_sbrk_r>
  304fac:	e3700001 	cmn	r0, #1
  304fb0:	e1a0b000 	mov	fp, r0
  304fb4:	0a0000e6 	beq	305354 <_malloc_r+0x6ac>
  304fb8:	e0542007 	subs	r2, r4, r7
  304fbc:	e0843008 	add	r3, r4, r8
  304fc0:	13a02001 	movne	r2, #1
  304fc4:	e1540007 	cmp	r4, r7
  304fc8:	11530000 	cmpne	r3, r0
  304fcc:	e58d2004 	str	r2, [sp, #4]
  304fd0:	e59f03f8 	ldr	r0, [pc, #1016]	; 3053d0 <_malloc_r+0x728>
  304fd4:	9a000086 	bls	3051f4 <_malloc_r+0x54c>
  304fd8:	e5904008 	ldr	r4, [r0, #8]
  304fdc:	e5943004 	ldr	r3, [r4, #4]
  304fe0:	e3c33003 	bic	r3, r3, #3
  304fe4:	e1550003 	cmp	r5, r3
  304fe8:	93a02000 	movls	r2, #0
  304fec:	83a02001 	movhi	r2, #1
  304ff0:	e0653003 	rsb	r3, r5, r3
  304ff4:	e353000f 	cmp	r3, #15
  304ff8:	d3822001 	orrle	r2, r2, #1
  304ffc:	e3520000 	cmp	r2, #0
  305000:	0a000003 	beq	305014 <_malloc_r+0x36c>
  305004:	e1a00006 	mov	r0, r6
  305008:	eb0001aa 	bl	3056b8 <__malloc_unlock>
  30500c:	e3a04000 	mov	r4, #0
  305010:	eaffff46 	b	304d30 <_malloc_r+0x88>
  305014:	e3852001 	orr	r2, r5, #1
  305018:	e3833001 	orr	r3, r3, #1
  30501c:	e0845005 	add	r5, r4, r5
  305020:	e5842004 	str	r2, [r4, #4]
  305024:	e1a00006 	mov	r0, r6
  305028:	e5875008 	str	r5, [r7, #8]
  30502c:	e2844008 	add	r4, r4, #8
  305030:	e5853004 	str	r3, [r5, #4]
  305034:	eb00019f 	bl	3056b8 <__malloc_unlock>
  305038:	e1a00004 	mov	r0, r4
  30503c:	e28dd00c 	add	sp, sp, #12
  305040:	e8bd4ff0 	pop	{r4, r5, r6, r7, r8, r9, sl, fp, lr}
  305044:	e12fff1e 	bx	lr
  305048:	e3500014 	cmp	r0, #20
  30504c:	9280005b 	addls	r0, r0, #91	; 0x5b
  305050:	91a01080 	lslls	r1, r0, #1
  305054:	9affff42 	bls	304d64 <_malloc_r+0xbc>
  305058:	e3500054 	cmp	r0, #84	; 0x54
  30505c:	8a0000a7 	bhi	305300 <_malloc_r+0x658>
  305060:	e1a00625 	lsr	r0, r5, #12
  305064:	e280006e 	add	r0, r0, #110	; 0x6e
  305068:	e1a01080 	lsl	r1, r0, #1
  30506c:	eaffff3c 	b	304d64 <_malloc_r+0xbc>
  305070:	e1a024a3 	lsr	r2, r3, #9
  305074:	e3520004 	cmp	r2, #4
  305078:	9a00003f 	bls	30517c <_malloc_r+0x4d4>
  30507c:	e3520014 	cmp	r2, #20
  305080:	9282105b 	addls	r1, r2, #91	; 0x5b
  305084:	91a0e081 	lslls	lr, r1, #1
  305088:	9a000004 	bls	3050a0 <_malloc_r+0x3f8>
  30508c:	e3520054 	cmp	r2, #84	; 0x54
  305090:	8a0000bf 	bhi	305394 <_malloc_r+0x6ec>
  305094:	e1a02623 	lsr	r2, r3, #12
  305098:	e282106e 	add	r1, r2, #110	; 0x6e
  30509c:	e1a0e081 	lsl	lr, r1, #1
  3050a0:	e087e10e 	add	lr, r7, lr, lsl #2
  3050a4:	e59e2008 	ldr	r2, [lr, #8]
  3050a8:	e152000e 	cmp	r2, lr
  3050ac:	e59f831c 	ldr	r8, [pc, #796]	; 3053d0 <_malloc_r+0x728>
  3050b0:	0a000098 	beq	305318 <_malloc_r+0x670>
  3050b4:	e5921004 	ldr	r1, [r2, #4]
  3050b8:	e3c11003 	bic	r1, r1, #3
  3050bc:	e1530001 	cmp	r3, r1
  3050c0:	2a000002 	bcs	3050d0 <_malloc_r+0x428>
  3050c4:	e5922008 	ldr	r2, [r2, #8]
  3050c8:	e15e0002 	cmp	lr, r2
  3050cc:	1afffff8 	bne	3050b4 <_malloc_r+0x40c>
  3050d0:	e592100c 	ldr	r1, [r2, #12]
  3050d4:	e5973004 	ldr	r3, [r7, #4]
  3050d8:	e584100c 	str	r1, [r4, #12]
  3050dc:	e5842008 	str	r2, [r4, #8]
  3050e0:	e5814008 	str	r4, [r1, #8]
  3050e4:	e582400c 	str	r4, [r2, #12]
  3050e8:	eaffff4c 	b	304e20 <_malloc_r+0x178>
  3050ec:	e385e001 	orr	lr, r5, #1
  3050f0:	e3823001 	orr	r3, r2, #1
  3050f4:	e0845005 	add	r5, r4, r5
  3050f8:	e584e004 	str	lr, [r4, #4]
  3050fc:	e1a00006 	mov	r0, r6
  305100:	e5815014 	str	r5, [r1, #20]
  305104:	e5815010 	str	r5, [r1, #16]
  305108:	e585c00c 	str	ip, [r5, #12]
  30510c:	e9851008 	stmib	r5, {r3, ip}
  305110:	e7852002 	str	r2, [r5, r2]
  305114:	e2844008 	add	r4, r4, #8
  305118:	eb000166 	bl	3056b8 <__malloc_unlock>
  30511c:	eaffff03 	b	304d30 <_malloc_r+0x88>
  305120:	e2899001 	add	r9, r9, #1
  305124:	e3190003 	tst	r9, #3
  305128:	e2844008 	add	r4, r4, #8
  30512c:	1affff4e 	bne	304e6c <_malloc_r+0x1c4>
  305130:	ea000019 	b	30519c <_malloc_r+0x4f4>
  305134:	e2843008 	add	r3, r4, #8
  305138:	e5944014 	ldr	r4, [r4, #20]
  30513c:	e1530004 	cmp	r3, r4
  305140:	02800002 	addeq	r0, r0, #2
  305144:	0affff18 	beq	304dac <_malloc_r+0x104>
  305148:	eafffeeb 	b	304cfc <_malloc_r+0x54>
  30514c:	e1a04003 	mov	r4, r3
  305150:	e0832002 	add	r2, r3, r2
  305154:	e5921004 	ldr	r1, [r2, #4]
  305158:	e593c00c 	ldr	ip, [r3, #12]
  30515c:	e5b4e008 	ldr	lr, [r4, #8]!
  305160:	e3813001 	orr	r3, r1, #1
  305164:	e5823004 	str	r3, [r2, #4]
  305168:	e1a00006 	mov	r0, r6
  30516c:	e58ec00c 	str	ip, [lr, #12]
  305170:	e58ce008 	str	lr, [ip, #8]
  305174:	eb00014f 	bl	3056b8 <__malloc_unlock>
  305178:	eafffeec 	b	304d30 <_malloc_r+0x88>
  30517c:	e1a02323 	lsr	r2, r3, #6
  305180:	e2821038 	add	r1, r2, #56	; 0x38
  305184:	e1a0e081 	lsl	lr, r1, #1
  305188:	eaffffc4 	b	3050a0 <_malloc_r+0x3f8>
  30518c:	e5988000 	ldr	r8, [r8]
  305190:	e1580003 	cmp	r8, r3
  305194:	e2400001 	sub	r0, r0, #1
  305198:	1a00008a 	bne	3053c8 <_malloc_r+0x720>
  30519c:	e3100003 	tst	r0, #3
  3051a0:	e2483008 	sub	r3, r8, #8
  3051a4:	1afffff8 	bne	30518c <_malloc_r+0x4e4>
  3051a8:	e5973004 	ldr	r3, [r7, #4]
  3051ac:	e1c3300e 	bic	r3, r3, lr
  3051b0:	e5873004 	str	r3, [r7, #4]
  3051b4:	e1a0e08e 	lsl	lr, lr, #1
  3051b8:	e15e0003 	cmp	lr, r3
  3051bc:	83a02000 	movhi	r2, #0
  3051c0:	93a02001 	movls	r2, #1
  3051c4:	e35e0000 	cmp	lr, #0
  3051c8:	03a02000 	moveq	r2, #0
  3051cc:	e3520000 	cmp	r2, #0
  3051d0:	0affff5c 	beq	304f48 <_malloc_r+0x2a0>
  3051d4:	e113000e 	tst	r3, lr
  3051d8:	e1a00009 	mov	r0, r9
  3051dc:	1affff1f 	bne	304e60 <_malloc_r+0x1b8>
  3051e0:	e1a0e08e 	lsl	lr, lr, #1
  3051e4:	e113000e 	tst	r3, lr
  3051e8:	e2800004 	add	r0, r0, #4
  3051ec:	0afffffb 	beq	3051e0 <_malloc_r+0x538>
  3051f0:	eaffff1a 	b	304e60 <_malloc_r+0x1b8>
  3051f4:	e5991004 	ldr	r1, [r9, #4]
  3051f8:	e153000b 	cmp	r3, fp
  3051fc:	e08a1001 	add	r1, sl, r1
  305200:	e5891004 	str	r1, [r9, #4]
  305204:	0a000056 	beq	305364 <_malloc_r+0x6bc>
  305208:	e5970408 	ldr	r0, [r7, #1032]	; 0x408
  30520c:	e3700001 	cmn	r0, #1
  305210:	1063300b 	rsbne	r3, r3, fp
  305214:	e59f01b4 	ldr	r0, [pc, #436]	; 3053d0 <_malloc_r+0x728>
  305218:	10811003 	addne	r1, r1, r3
  30521c:	15891004 	strne	r1, [r9, #4]
  305220:	0580b408 	streq	fp, [r0, #1032]	; 0x408
  305224:	e21b3007 	ands	r3, fp, #7
  305228:	03a01a01 	moveq	r1, #4096	; 0x1000
  30522c:	12631008 	rsbne	r1, r3, #8
  305230:	108bb001 	addne	fp, fp, r1
  305234:	12633a01 	rsbne	r3, r3, #4096	; 0x1000
  305238:	12831008 	addne	r1, r3, #8
  30523c:	e08b300a 	add	r3, fp, sl
  305240:	e1a03a03 	lsl	r3, r3, #20
  305244:	e041aa23 	sub	sl, r1, r3, lsr #20
  305248:	e1a0100a 	mov	r1, sl
  30524c:	e1a00006 	mov	r0, r6
  305250:	eb000491 	bl	30649c <_sbrk_r>
  305254:	e3700001 	cmn	r0, #1
  305258:	03a0a000 	moveq	sl, #0
  30525c:	03a03001 	moveq	r3, #1
  305260:	106b3000 	rsbne	r3, fp, r0
  305264:	e5991004 	ldr	r1, [r9, #4]
  305268:	e59d2004 	ldr	r2, [sp, #4]
  30526c:	108a3003 	addne	r3, sl, r3
  305270:	13833001 	orrne	r3, r3, #1
  305274:	e08a1001 	add	r1, sl, r1
  305278:	e3520000 	cmp	r2, #0
  30527c:	e587b008 	str	fp, [r7, #8]
  305280:	e5891004 	str	r1, [r9, #4]
  305284:	e58b3004 	str	r3, [fp, #4]
  305288:	e59fa144 	ldr	sl, [pc, #324]	; 3053d4 <_malloc_r+0x72c>
  30528c:	0a00000f 	beq	3052d0 <_malloc_r+0x628>
  305290:	e358000f 	cmp	r8, #15
  305294:	93a03001 	movls	r3, #1
  305298:	958b3004 	strls	r3, [fp, #4]
  30529c:	9affff58 	bls	305004 <_malloc_r+0x35c>
  3052a0:	e3a00005 	mov	r0, #5
  3052a4:	e248300c 	sub	r3, r8, #12
  3052a8:	e3c33007 	bic	r3, r3, #7
  3052ac:	e0842003 	add	r2, r4, r3
  3052b0:	e5820004 	str	r0, [r2, #4]
  3052b4:	e5820008 	str	r0, [r2, #8]
  3052b8:	e5942004 	ldr	r2, [r4, #4]
  3052bc:	e2022001 	and	r2, r2, #1
  3052c0:	e353000f 	cmp	r3, #15
  3052c4:	e1833002 	orr	r3, r3, r2
  3052c8:	e5843004 	str	r3, [r4, #4]
  3052cc:	8a00002b 	bhi	305380 <_malloc_r+0x6d8>
  3052d0:	e599302c 	ldr	r3, [r9, #44]	; 0x2c
  3052d4:	e1510003 	cmp	r1, r3
  3052d8:	e59f30f4 	ldr	r3, [pc, #244]	; 3053d4 <_malloc_r+0x72c>
  3052dc:	e5974008 	ldr	r4, [r7, #8]
  3052e0:	8583102c 	strhi	r1, [r3, #44]	; 0x2c
  3052e4:	e5993030 	ldr	r3, [r9, #48]	; 0x30
  3052e8:	e59f20e4 	ldr	r2, [pc, #228]	; 3053d4 <_malloc_r+0x72c>
  3052ec:	e1510003 	cmp	r1, r3
  3052f0:	e5943004 	ldr	r3, [r4, #4]
  3052f4:	85821030 	strhi	r1, [r2, #48]	; 0x30
  3052f8:	e3c33003 	bic	r3, r3, #3
  3052fc:	eaffff38 	b	304fe4 <_malloc_r+0x33c>
  305300:	e3500f55 	cmp	r0, #340	; 0x154
  305304:	8a00000a 	bhi	305334 <_malloc_r+0x68c>
  305308:	e1a007a5 	lsr	r0, r5, #15
  30530c:	e2800077 	add	r0, r0, #119	; 0x77
  305310:	e1a01080 	lsl	r1, r0, #1
  305314:	eafffe92 	b	304d64 <_malloc_r+0xbc>
  305318:	e3a0e001 	mov	lr, #1
  30531c:	e5983004 	ldr	r3, [r8, #4]
  305320:	e1a01141 	asr	r1, r1, #2
  305324:	e183311e 	orr	r3, r3, lr, lsl r1
  305328:	e5883004 	str	r3, [r8, #4]
  30532c:	e1a01002 	mov	r1, r2
  305330:	eaffff68 	b	3050d8 <_malloc_r+0x430>
  305334:	e59f309c 	ldr	r3, [pc, #156]	; 3053d8 <_malloc_r+0x730>
  305338:	e1500003 	cmp	r0, r3
  30533c:	91a00925 	lsrls	r0, r5, #18
  305340:	9280007c 	addls	r0, r0, #124	; 0x7c
  305344:	91a01080 	lslls	r1, r0, #1
  305348:	83a010fc 	movhi	r1, #252	; 0xfc
  30534c:	83a0007e 	movhi	r0, #126	; 0x7e
  305350:	eafffe83 	b	304d64 <_malloc_r+0xbc>
  305354:	e5974008 	ldr	r4, [r7, #8]
  305358:	e5943004 	ldr	r3, [r4, #4]
  30535c:	e3c33003 	bic	r3, r3, #3
  305360:	eaffff1f 	b	304fe4 <_malloc_r+0x33c>
  305364:	e1b02a03 	lsls	r2, r3, #20
  305368:	1affffa6 	bne	305208 <_malloc_r+0x560>
  30536c:	e08a3008 	add	r3, sl, r8
  305370:	e5902008 	ldr	r2, [r0, #8]
  305374:	e3833001 	orr	r3, r3, #1
  305378:	e5823004 	str	r3, [r2, #4]
  30537c:	eaffffd3 	b	3052d0 <_malloc_r+0x628>
  305380:	e2841008 	add	r1, r4, #8
  305384:	e1a00006 	mov	r0, r6
  305388:	ebfffcbf 	bl	30468c <_free_r>
  30538c:	e59a1004 	ldr	r1, [sl, #4]
  305390:	eaffffce 	b	3052d0 <_malloc_r+0x628>
  305394:	e3520f55 	cmp	r2, #340	; 0x154
  305398:	91a027a3 	lsrls	r2, r3, #15
  30539c:	92821077 	addls	r1, r2, #119	; 0x77
  3053a0:	91a0e081 	lslls	lr, r1, #1
  3053a4:	9affff3d 	bls	3050a0 <_malloc_r+0x3f8>
  3053a8:	e59f1028 	ldr	r1, [pc, #40]	; 3053d8 <_malloc_r+0x730>
  3053ac:	e1520001 	cmp	r2, r1
  3053b0:	91a02923 	lsrls	r2, r3, #18
  3053b4:	9282107c 	addls	r1, r2, #124	; 0x7c
  3053b8:	91a0e081 	lslls	lr, r1, #1
  3053bc:	83a0e0fc 	movhi	lr, #252	; 0xfc
  3053c0:	83a0107e 	movhi	r1, #126	; 0x7e
  3053c4:	eaffff35 	b	3050a0 <_malloc_r+0x3f8>
  3053c8:	e5973004 	ldr	r3, [r7, #4]
  3053cc:	eaffff78 	b	3051b4 <_malloc_r+0x50c>
  3053d0:	0030b474 	eorseq	fp, r0, r4, ror r4
  3053d4:	0030c084 	eorseq	ip, r0, r4, lsl #1
  3053d8:	00000554 	andeq	r0, r0, r4, asr r5

003053dc <memchr>:
  3053dc:	e3100003 	tst	r0, #3
  3053e0:	e92d4030 	push	{r4, r5, lr}
  3053e4:	e20110ff 	and	r1, r1, #255	; 0xff
  3053e8:	0a00003b 	beq	3054dc <memchr+0x100>
  3053ec:	e3520000 	cmp	r2, #0
  3053f0:	e242c001 	sub	ip, r2, #1
  3053f4:	0a00003a 	beq	3054e4 <memchr+0x108>
  3053f8:	e5d03000 	ldrb	r3, [r0]
  3053fc:	e1530001 	cmp	r3, r1
  305400:	12803001 	addne	r3, r0, #1
  305404:	1a000007 	bne	305428 <memchr+0x4c>
  305408:	ea00001b 	b	30547c <memchr+0xa0>
  30540c:	e35c0000 	cmp	ip, #0
  305410:	0a00001b 	beq	305484 <memchr+0xa8>
  305414:	e5d02000 	ldrb	r2, [r0]
  305418:	e1520001 	cmp	r2, r1
  30541c:	e2833001 	add	r3, r3, #1
  305420:	e24cc001 	sub	ip, ip, #1
  305424:	0a000014 	beq	30547c <memchr+0xa0>
  305428:	e3130003 	tst	r3, #3
  30542c:	e1a00003 	mov	r0, r3
  305430:	1afffff5 	bne	30540c <memchr+0x30>
  305434:	e35c0003 	cmp	ip, #3
  305438:	8a000014 	bhi	305490 <memchr+0xb4>
  30543c:	e35c0000 	cmp	ip, #0
  305440:	0a00000f 	beq	305484 <memchr+0xa8>
  305444:	e5d03000 	ldrb	r3, [r0]
  305448:	e1530001 	cmp	r3, r1
  30544c:	1080c00c 	addne	ip, r0, ip
  305450:	12803001 	addne	r3, r0, #1
  305454:	1a000004 	bne	30546c <memchr+0x90>
  305458:	ea000007 	b	30547c <memchr+0xa0>
  30545c:	e5d02000 	ldrb	r2, [r0]
  305460:	e1520001 	cmp	r2, r1
  305464:	e2833001 	add	r3, r3, #1
  305468:	0a000003 	beq	30547c <memchr+0xa0>
  30546c:	e153000c 	cmp	r3, ip
  305470:	e1a00003 	mov	r0, r3
  305474:	1afffff8 	bne	30545c <memchr+0x80>
  305478:	e3a00000 	mov	r0, #0
  30547c:	e8bd4030 	pop	{r4, r5, lr}
  305480:	e12fff1e 	bx	lr
  305484:	e1a0000c 	mov	r0, ip
  305488:	e8bd4030 	pop	{r4, r5, lr}
  30548c:	e12fff1e 	bx	lr
  305490:	e1a0e000 	mov	lr, r0
  305494:	e1815401 	orr	r5, r1, r1, lsl #8
  305498:	e1855805 	orr	r5, r5, r5, lsl #16
  30549c:	e59e2000 	ldr	r2, [lr]
  3054a0:	e59f3044 	ldr	r3, [pc, #68]	; 3054ec <memchr+0x110>
  3054a4:	e0222005 	eor	r2, r2, r5
  3054a8:	e0823003 	add	r3, r2, r3
  3054ac:	e59f403c 	ldr	r4, [pc, #60]	; 3054f0 <memchr+0x114>
  3054b0:	e1c33002 	bic	r3, r3, r2
  3054b4:	e0044003 	and	r4, r4, r3
  3054b8:	e3540000 	cmp	r4, #0
  3054bc:	e1a0000e 	mov	r0, lr
  3054c0:	e28ee004 	add	lr, lr, #4
  3054c4:	1affffdc 	bne	30543c <memchr+0x60>
  3054c8:	e24cc004 	sub	ip, ip, #4
  3054cc:	e35c0003 	cmp	ip, #3
  3054d0:	e1a0000e 	mov	r0, lr
  3054d4:	8afffff0 	bhi	30549c <memchr+0xc0>
  3054d8:	eaffffd7 	b	30543c <memchr+0x60>
  3054dc:	e1a0c002 	mov	ip, r2
  3054e0:	eaffffd3 	b	305434 <memchr+0x58>
  3054e4:	e1a00002 	mov	r0, r2
  3054e8:	eaffffe3 	b	30547c <memchr+0xa0>
  3054ec:	fefefeff 	mrc2	14, 7, pc, cr14, cr15, {7}
  3054f0:	80808080 	addhi	r8, r0, r0, lsl #1

003054f4 <memcpy>:
  3054f4:	e352000f 	cmp	r2, #15
  3054f8:	e92d4030 	push	{r4, r5, lr}
  3054fc:	e1a0c002 	mov	ip, r2
  305500:	9a000002 	bls	305510 <memcpy+0x1c>
  305504:	e1803001 	orr	r3, r0, r1
  305508:	e3130003 	tst	r3, #3
  30550c:	0a00000a 	beq	30553c <memcpy+0x48>
  305510:	e1a03000 	mov	r3, r0
  305514:	e35c0000 	cmp	ip, #0
  305518:	0a000005 	beq	305534 <memcpy+0x40>
  30551c:	e2433001 	sub	r3, r3, #1
  305520:	e081c00c 	add	ip, r1, ip
  305524:	e4d12001 	ldrb	r2, [r1], #1
  305528:	e151000c 	cmp	r1, ip
  30552c:	e5e32001 	strb	r2, [r3, #1]!
  305530:	1afffffb 	bne	305524 <memcpy+0x30>
  305534:	e8bd4030 	pop	{r4, r5, lr}
  305538:	e12fff1e 	bx	lr
  30553c:	e2423010 	sub	r3, r2, #16
  305540:	e1a03223 	lsr	r3, r3, #4
  305544:	e2835002 	add	r5, r3, #2
  305548:	e0805205 	add	r5, r0, r5, lsl #4
  30554c:	e280c010 	add	ip, r0, #16
  305550:	e281e010 	add	lr, r1, #16
  305554:	e51e4010 	ldr	r4, [lr, #-16]
  305558:	e50c4010 	str	r4, [ip, #-16]
  30555c:	e51e400c 	ldr	r4, [lr, #-12]
  305560:	e50c400c 	str	r4, [ip, #-12]
  305564:	e51e4008 	ldr	r4, [lr, #-8]
  305568:	e50c4008 	str	r4, [ip, #-8]
  30556c:	e51e4004 	ldr	r4, [lr, #-4]
  305570:	e28cc010 	add	ip, ip, #16
  305574:	e50c4014 	str	r4, [ip, #-20]
  305578:	e15c0005 	cmp	ip, r5
  30557c:	e28ee010 	add	lr, lr, #16
  305580:	1afffff3 	bne	305554 <memcpy+0x60>
  305584:	e202200f 	and	r2, r2, #15
  305588:	e2833001 	add	r3, r3, #1
  30558c:	e1a03203 	lsl	r3, r3, #4
  305590:	e3520003 	cmp	r2, #3
  305594:	e0811003 	add	r1, r1, r3
  305598:	e1a0c002 	mov	ip, r2
  30559c:	e0803003 	add	r3, r0, r3
  3055a0:	9affffdb 	bls	305514 <memcpy+0x20>
  3055a4:	e2422004 	sub	r2, r2, #4
  3055a8:	e491e004 	ldr	lr, [r1], #4
  3055ac:	e3520003 	cmp	r2, #3
  3055b0:	e1a0c002 	mov	ip, r2
  3055b4:	e483e004 	str	lr, [r3], #4
  3055b8:	cafffff9 	bgt	3055a4 <memcpy+0xb0>
  3055bc:	eaffffd4 	b	305514 <memcpy+0x20>

003055c0 <memset>:
  3055c0:	e3100003 	tst	r0, #3
  3055c4:	e92d4010 	push	{r4, lr}
  3055c8:	0a000037 	beq	3056ac <memset+0xec>
  3055cc:	e3520000 	cmp	r2, #0
  3055d0:	e2422001 	sub	r2, r2, #1
  3055d4:	0a000032 	beq	3056a4 <memset+0xe4>
  3055d8:	e201c0ff 	and	ip, r1, #255	; 0xff
  3055dc:	e1a03000 	mov	r3, r0
  3055e0:	ea000002 	b	3055f0 <memset+0x30>
  3055e4:	e3520000 	cmp	r2, #0
  3055e8:	e2422001 	sub	r2, r2, #1
  3055ec:	0a00002c 	beq	3056a4 <memset+0xe4>
  3055f0:	e4c3c001 	strb	ip, [r3], #1
  3055f4:	e3130003 	tst	r3, #3
  3055f8:	1afffff9 	bne	3055e4 <memset+0x24>
  3055fc:	e3520003 	cmp	r2, #3
  305600:	9a000020 	bls	305688 <memset+0xc8>
  305604:	e201e0ff 	and	lr, r1, #255	; 0xff
  305608:	e18ee40e 	orr	lr, lr, lr, lsl #8
  30560c:	e352000f 	cmp	r2, #15
  305610:	e18ee80e 	orr	lr, lr, lr, lsl #16
  305614:	9a000010 	bls	30565c <memset+0x9c>
  305618:	e1a04002 	mov	r4, r2
  30561c:	e283c010 	add	ip, r3, #16
  305620:	e2444010 	sub	r4, r4, #16
  305624:	e354000f 	cmp	r4, #15
  305628:	e50ce010 	str	lr, [ip, #-16]
  30562c:	e50ce00c 	str	lr, [ip, #-12]
  305630:	e50ce008 	str	lr, [ip, #-8]
  305634:	e50ce004 	str	lr, [ip, #-4]
  305638:	e28cc010 	add	ip, ip, #16
  30563c:	8afffff7 	bhi	305620 <memset+0x60>
  305640:	e242c010 	sub	ip, r2, #16
  305644:	e3ccc00f 	bic	ip, ip, #15
  305648:	e202200f 	and	r2, r2, #15
  30564c:	e28cc010 	add	ip, ip, #16
  305650:	e3520003 	cmp	r2, #3
  305654:	e083300c 	add	r3, r3, ip
  305658:	9a00000a 	bls	305688 <memset+0xc8>
  30565c:	e1a04003 	mov	r4, r3
  305660:	e1a0c002 	mov	ip, r2
  305664:	e24cc004 	sub	ip, ip, #4
  305668:	e35c0003 	cmp	ip, #3
  30566c:	e484e004 	str	lr, [r4], #4
  305670:	8afffffb 	bhi	305664 <memset+0xa4>
  305674:	e242c004 	sub	ip, r2, #4
  305678:	e3ccc003 	bic	ip, ip, #3
  30567c:	e28cc004 	add	ip, ip, #4
  305680:	e083300c 	add	r3, r3, ip
  305684:	e2022003 	and	r2, r2, #3
  305688:	e3520000 	cmp	r2, #0
  30568c:	0a000004 	beq	3056a4 <memset+0xe4>
  305690:	e20110ff 	and	r1, r1, #255	; 0xff
  305694:	e0832002 	add	r2, r3, r2
  305698:	e4c31001 	strb	r1, [r3], #1
  30569c:	e1530002 	cmp	r3, r2
  3056a0:	1afffffc 	bne	305698 <memset+0xd8>
  3056a4:	e8bd4010 	pop	{r4, lr}
  3056a8:	e12fff1e 	bx	lr
  3056ac:	e1a03000 	mov	r3, r0
  3056b0:	eaffffd1 	b	3055fc <memset+0x3c>

003056b4 <__malloc_lock>:
  3056b4:	e12fff1e 	bx	lr

003056b8 <__malloc_unlock>:
  3056b8:	e12fff1e 	bx	lr

003056bc <_Balloc>:
  3056bc:	e590204c 	ldr	r2, [r0, #76]	; 0x4c
  3056c0:	e3520000 	cmp	r2, #0
  3056c4:	e92d4070 	push	{r4, r5, r6, lr}
  3056c8:	e1a05000 	mov	r5, r0
  3056cc:	e1a04001 	mov	r4, r1
  3056d0:	0a00000a 	beq	305700 <_Balloc+0x44>
  3056d4:	e7923104 	ldr	r3, [r2, r4, lsl #2]
  3056d8:	e3530000 	cmp	r3, #0
  3056dc:	0a000010 	beq	305724 <_Balloc+0x68>
  3056e0:	e5931000 	ldr	r1, [r3]
  3056e4:	e7821104 	str	r1, [r2, r4, lsl #2]
  3056e8:	e3a02000 	mov	r2, #0
  3056ec:	e1a00003 	mov	r0, r3
  3056f0:	e5832010 	str	r2, [r3, #16]
  3056f4:	e583200c 	str	r2, [r3, #12]
  3056f8:	e8bd4070 	pop	{r4, r5, r6, lr}
  3056fc:	e12fff1e 	bx	lr
  305700:	e3a02021 	mov	r2, #33	; 0x21
  305704:	e3a01004 	mov	r1, #4
  305708:	eb00093c 	bl	307c00 <_calloc_r>
  30570c:	e3500000 	cmp	r0, #0
  305710:	e585004c 	str	r0, [r5, #76]	; 0x4c
  305714:	11a02000 	movne	r2, r0
  305718:	1affffed 	bne	3056d4 <_Balloc+0x18>
  30571c:	e3a00000 	mov	r0, #0
  305720:	eafffff4 	b	3056f8 <_Balloc+0x3c>
  305724:	e3a01001 	mov	r1, #1
  305728:	e1a06411 	lsl	r6, r1, r4
  30572c:	e2862005 	add	r2, r6, #5
  305730:	e1a00005 	mov	r0, r5
  305734:	e1a02102 	lsl	r2, r2, #2
  305738:	eb000930 	bl	307c00 <_calloc_r>
  30573c:	e2503000 	subs	r3, r0, #0
  305740:	0afffff5 	beq	30571c <_Balloc+0x60>
  305744:	e9830050 	stmib	r3, {r4, r6}
  305748:	eaffffe6 	b	3056e8 <_Balloc+0x2c>

0030574c <_Bfree>:
  30574c:	e3510000 	cmp	r1, #0
  305750:	1590304c 	ldrne	r3, [r0, #76]	; 0x4c
  305754:	15912004 	ldrne	r2, [r1, #4]
  305758:	17930102 	ldrne	r0, [r3, r2, lsl #2]
  30575c:	15810000 	strne	r0, [r1]
  305760:	17831102 	strne	r1, [r3, r2, lsl #2]
  305764:	e12fff1e 	bx	lr

00305768 <__multadd>:
  305768:	e92d40f0 	push	{r4, r5, r6, r7, lr}
  30576c:	e1a04001 	mov	r4, r1
  305770:	e1a05000 	mov	r5, r0
  305774:	e3a0e000 	mov	lr, #0
  305778:	e5916010 	ldr	r6, [r1, #16]
  30577c:	e24dd00c 	sub	sp, sp, #12
  305780:	e281c014 	add	ip, r1, #20
  305784:	e59c1000 	ldr	r1, [ip]
  305788:	e1a00801 	lsl	r0, r1, #16
  30578c:	e1a00820 	lsr	r0, r0, #16
  305790:	e0233092 	mla	r3, r2, r0, r3
  305794:	e1a01821 	lsr	r1, r1, #16
  305798:	e0010192 	mul	r1, r2, r1
  30579c:	e1a00803 	lsl	r0, r3, #16
  3057a0:	e28ee001 	add	lr, lr, #1
  3057a4:	e0813823 	add	r3, r1, r3, lsr #16
  3057a8:	e1a01820 	lsr	r1, r0, #16
  3057ac:	e0811803 	add	r1, r1, r3, lsl #16
  3057b0:	e156000e 	cmp	r6, lr
  3057b4:	e48c1004 	str	r1, [ip], #4
  3057b8:	e1a03823 	lsr	r3, r3, #16
  3057bc:	cafffff0 	bgt	305784 <__multadd+0x1c>
  3057c0:	e3530000 	cmp	r3, #0
  3057c4:	0a000006 	beq	3057e4 <__multadd+0x7c>
  3057c8:	e5942008 	ldr	r2, [r4, #8]
  3057cc:	e1560002 	cmp	r6, r2
  3057d0:	aa000007 	bge	3057f4 <__multadd+0x8c>
  3057d4:	e0842106 	add	r2, r4, r6, lsl #2
  3057d8:	e2866001 	add	r6, r6, #1
  3057dc:	e5823014 	str	r3, [r2, #20]
  3057e0:	e5846010 	str	r6, [r4, #16]
  3057e4:	e1a00004 	mov	r0, r4
  3057e8:	e28dd00c 	add	sp, sp, #12
  3057ec:	e8bd40f0 	pop	{r4, r5, r6, r7, lr}
  3057f0:	e12fff1e 	bx	lr
  3057f4:	e5941004 	ldr	r1, [r4, #4]
  3057f8:	e1a00005 	mov	r0, r5
  3057fc:	e2811001 	add	r1, r1, #1
  305800:	e58d3004 	str	r3, [sp, #4]
  305804:	ebffffac 	bl	3056bc <_Balloc>
  305808:	e1a07000 	mov	r7, r0
  30580c:	e5942010 	ldr	r2, [r4, #16]
  305810:	e2822002 	add	r2, r2, #2
  305814:	e284100c 	add	r1, r4, #12
  305818:	e1a02102 	lsl	r2, r2, #2
  30581c:	e280000c 	add	r0, r0, #12
  305820:	ebffff33 	bl	3054f4 <memcpy>
  305824:	e595204c 	ldr	r2, [r5, #76]	; 0x4c
  305828:	e5941004 	ldr	r1, [r4, #4]
  30582c:	e7920101 	ldr	r0, [r2, r1, lsl #2]
  305830:	e59d3004 	ldr	r3, [sp, #4]
  305834:	e5840000 	str	r0, [r4]
  305838:	e7824101 	str	r4, [r2, r1, lsl #2]
  30583c:	e1a04007 	mov	r4, r7
  305840:	eaffffe3 	b	3057d4 <__multadd+0x6c>

00305844 <__s2b>:
  305844:	e59fc0dc 	ldr	ip, [pc, #220]	; 305928 <__s2b+0xe4>
  305848:	e92d43f8 	push	{r3, r4, r5, r6, r7, r8, r9, lr}
  30584c:	e1a06003 	mov	r6, r3
  305850:	e2833008 	add	r3, r3, #8
  305854:	e0ccec93 	smull	lr, ip, r3, ip
  305858:	e1a03fc3 	asr	r3, r3, #31
  30585c:	e063c0cc 	rsb	ip, r3, ip, asr #1
  305860:	e35c0001 	cmp	ip, #1
  305864:	e1a05000 	mov	r5, r0
  305868:	e1a04001 	mov	r4, r1
  30586c:	e1a07002 	mov	r7, r2
  305870:	e59d8020 	ldr	r8, [sp, #32]
  305874:	da000029 	ble	305920 <__s2b+0xdc>
  305878:	e3a03001 	mov	r3, #1
  30587c:	e3a01000 	mov	r1, #0
  305880:	e1a03083 	lsl	r3, r3, #1
  305884:	e15c0003 	cmp	ip, r3
  305888:	e2811001 	add	r1, r1, #1
  30588c:	cafffffb 	bgt	305880 <__s2b+0x3c>
  305890:	e1a00005 	mov	r0, r5
  305894:	ebffff88 	bl	3056bc <_Balloc>
  305898:	e3a03001 	mov	r3, #1
  30589c:	e3570009 	cmp	r7, #9
  3058a0:	e5808014 	str	r8, [r0, #20]
  3058a4:	e5803010 	str	r3, [r0, #16]
  3058a8:	d3a07009 	movle	r7, #9
  3058ac:	d284400a 	addle	r4, r4, #10
  3058b0:	da00000c 	ble	3058e8 <__s2b+0xa4>
  3058b4:	e2849009 	add	r9, r4, #9
  3058b8:	e1a08009 	mov	r8, r9
  3058bc:	e0844007 	add	r4, r4, r7
  3058c0:	e4d83001 	ldrb	r3, [r8], #1
  3058c4:	e1a01000 	mov	r1, r0
  3058c8:	e2433030 	sub	r3, r3, #48	; 0x30
  3058cc:	e1a00005 	mov	r0, r5
  3058d0:	e3a0200a 	mov	r2, #10
  3058d4:	ebffffa3 	bl	305768 <__multadd>
  3058d8:	e1580004 	cmp	r8, r4
  3058dc:	1afffff7 	bne	3058c0 <__s2b+0x7c>
  3058e0:	e0894007 	add	r4, r9, r7
  3058e4:	e2444008 	sub	r4, r4, #8
  3058e8:	e1560007 	cmp	r6, r7
  3058ec:	da000009 	ble	305918 <__s2b+0xd4>
  3058f0:	e0676006 	rsb	r6, r7, r6
  3058f4:	e0846006 	add	r6, r4, r6
  3058f8:	e4d43001 	ldrb	r3, [r4], #1
  3058fc:	e1a01000 	mov	r1, r0
  305900:	e2433030 	sub	r3, r3, #48	; 0x30
  305904:	e1a00005 	mov	r0, r5
  305908:	e3a0200a 	mov	r2, #10
  30590c:	ebffff95 	bl	305768 <__multadd>
  305910:	e1540006 	cmp	r4, r6
  305914:	1afffff7 	bne	3058f8 <__s2b+0xb4>
  305918:	e8bd43f8 	pop	{r3, r4, r5, r6, r7, r8, r9, lr}
  30591c:	e12fff1e 	bx	lr
  305920:	e3a01000 	mov	r1, #0
  305924:	eaffffd9 	b	305890 <__s2b+0x4c>
  305928:	38e38e39 	stmiacc	r3!, {r0, r3, r4, r5, r9, sl, fp, pc}^

0030592c <__hi0bits>:
  30592c:	e1b03820 	lsrs	r3, r0, #16
  305930:	03a03010 	moveq	r3, #16
  305934:	01a00800 	lsleq	r0, r0, #16
  305938:	13a03000 	movne	r3, #0
  30593c:	e31004ff 	tst	r0, #-16777216	; 0xff000000
  305940:	01a00400 	lsleq	r0, r0, #8
  305944:	02833008 	addeq	r3, r3, #8
  305948:	e310020f 	tst	r0, #-268435456	; 0xf0000000
  30594c:	01a00200 	lsleq	r0, r0, #4
  305950:	02833004 	addeq	r3, r3, #4
  305954:	e3100103 	tst	r0, #-1073741824	; 0xc0000000
  305958:	01a00100 	lsleq	r0, r0, #2
  30595c:	02833002 	addeq	r3, r3, #2
  305960:	e3500000 	cmp	r0, #0
  305964:	ba000005 	blt	305980 <__hi0bits+0x54>
  305968:	e3100101 	tst	r0, #1073741824	; 0x40000000
  30596c:	1a000001 	bne	305978 <__hi0bits+0x4c>
  305970:	e3a00020 	mov	r0, #32
  305974:	e12fff1e 	bx	lr
  305978:	e2830001 	add	r0, r3, #1
  30597c:	e12fff1e 	bx	lr
  305980:	e1a00003 	mov	r0, r3
  305984:	e12fff1e 	bx	lr

00305988 <__lo0bits>:
  305988:	e5903000 	ldr	r3, [r0]
  30598c:	e2132007 	ands	r2, r3, #7
  305990:	0a000009 	beq	3059bc <__lo0bits+0x34>
  305994:	e3130001 	tst	r3, #1
  305998:	1a00001d 	bne	305a14 <__lo0bits+0x8c>
  30599c:	e3130002 	tst	r3, #2
  3059a0:	11a030a3 	lsrne	r3, r3, #1
  3059a4:	01a03123 	lsreq	r3, r3, #2
  3059a8:	15803000 	strne	r3, [r0]
  3059ac:	05803000 	streq	r3, [r0]
  3059b0:	13a00001 	movne	r0, #1
  3059b4:	03a00002 	moveq	r0, #2
  3059b8:	e12fff1e 	bx	lr
  3059bc:	e1b01803 	lsls	r1, r3, #16
  3059c0:	03a02010 	moveq	r2, #16
  3059c4:	01a03823 	lsreq	r3, r3, #16
  3059c8:	e31300ff 	tst	r3, #255	; 0xff
  3059cc:	01a03423 	lsreq	r3, r3, #8
  3059d0:	02822008 	addeq	r2, r2, #8
  3059d4:	e313000f 	tst	r3, #15
  3059d8:	01a03223 	lsreq	r3, r3, #4
  3059dc:	02822004 	addeq	r2, r2, #4
  3059e0:	e3130003 	tst	r3, #3
  3059e4:	01a03123 	lsreq	r3, r3, #2
  3059e8:	02822002 	addeq	r2, r2, #2
  3059ec:	e3130001 	tst	r3, #1
  3059f0:	1a000004 	bne	305a08 <__lo0bits+0x80>
  3059f4:	e1b030a3 	lsrs	r3, r3, #1
  3059f8:	1a000001 	bne	305a04 <__lo0bits+0x7c>
  3059fc:	e3a00020 	mov	r0, #32
  305a00:	e12fff1e 	bx	lr
  305a04:	e2822001 	add	r2, r2, #1
  305a08:	e5803000 	str	r3, [r0]
  305a0c:	e1a00002 	mov	r0, r2
  305a10:	e12fff1e 	bx	lr
  305a14:	e3a00000 	mov	r0, #0
  305a18:	e12fff1e 	bx	lr

00305a1c <__i2b>:
  305a1c:	e92d4010 	push	{r4, lr}
  305a20:	e1a04001 	mov	r4, r1
  305a24:	e3a01001 	mov	r1, #1
  305a28:	ebffff23 	bl	3056bc <_Balloc>
  305a2c:	e3a02001 	mov	r2, #1
  305a30:	e5804014 	str	r4, [r0, #20]
  305a34:	e5802010 	str	r2, [r0, #16]
  305a38:	e8bd4010 	pop	{r4, lr}
  305a3c:	e12fff1e 	bx	lr

00305a40 <__multiply>:
  305a40:	e92d4ff0 	push	{r4, r5, r6, r7, r8, r9, sl, fp, lr}
  305a44:	e5916010 	ldr	r6, [r1, #16]
  305a48:	e5928010 	ldr	r8, [r2, #16]
  305a4c:	e1560008 	cmp	r6, r8
  305a50:	a1a03008 	movge	r3, r8
  305a54:	b1a03001 	movlt	r3, r1
  305a58:	e1a05001 	mov	r5, r1
  305a5c:	b1a05002 	movlt	r5, r2
  305a60:	a1a08006 	movge	r8, r6
  305a64:	a1a06003 	movge	r6, r3
  305a68:	e1a04002 	mov	r4, r2
  305a6c:	b1a04003 	movlt	r4, r3
  305a70:	e5953008 	ldr	r3, [r5, #8]
  305a74:	e5951004 	ldr	r1, [r5, #4]
  305a78:	e0889006 	add	r9, r8, r6
  305a7c:	e1590003 	cmp	r9, r3
  305a80:	c2811001 	addgt	r1, r1, #1
  305a84:	e24dd014 	sub	sp, sp, #20
  305a88:	ebffff0b 	bl	3056bc <_Balloc>
  305a8c:	e280a014 	add	sl, r0, #20
  305a90:	e08ab109 	add	fp, sl, r9, lsl #2
  305a94:	e15a000b 	cmp	sl, fp
  305a98:	e1a03000 	mov	r3, r0
  305a9c:	e58d0004 	str	r0, [sp, #4]
  305aa0:	31a0300a 	movcc	r3, sl
  305aa4:	33a01000 	movcc	r1, #0
  305aa8:	2a000002 	bcs	305ab8 <__multiply+0x78>
  305aac:	e4831004 	str	r1, [r3], #4
  305ab0:	e15b0003 	cmp	fp, r3
  305ab4:	8afffffc 	bhi	305aac <__multiply+0x6c>
  305ab8:	e2842014 	add	r2, r4, #20
  305abc:	e0823106 	add	r3, r2, r6, lsl #2
  305ac0:	e1a01003 	mov	r1, r3
  305ac4:	e1520003 	cmp	r2, r3
  305ac8:	e2853014 	add	r3, r5, #20
  305acc:	358db008 	strcc	fp, [sp, #8]
  305ad0:	358d900c 	strcc	r9, [sp, #12]
  305ad4:	e0838108 	add	r8, r3, r8, lsl #2
  305ad8:	31a0b001 	movcc	fp, r1
  305adc:	31a09003 	movcc	r9, r3
  305ae0:	2a000040 	bcs	305be8 <__multiply+0x1a8>
  305ae4:	e4926004 	ldr	r6, [r2], #4
  305ae8:	e1a07806 	lsl	r7, r6, #16
  305aec:	e1b07827 	lsrs	r7, r7, #16
  305af0:	0a00001a 	beq	305b60 <__multiply+0x120>
  305af4:	e1a06009 	mov	r6, r9
  305af8:	e1a0500a 	mov	r5, sl
  305afc:	e3a00000 	mov	r0, #0
  305b00:	ea000000 	b	305b08 <__multiply+0xc8>
  305b04:	e1a05001 	mov	r5, r1
  305b08:	e1a01005 	mov	r1, r5
  305b0c:	e4963004 	ldr	r3, [r6], #4
  305b10:	e595e000 	ldr	lr, [r5]
  305b14:	e1a04803 	lsl	r4, r3, #16
  305b18:	e1a0c80e 	lsl	ip, lr, #16
  305b1c:	e1a04824 	lsr	r4, r4, #16
  305b20:	e1a0c82c 	lsr	ip, ip, #16
  305b24:	e02cc497 	mla	ip, r7, r4, ip
  305b28:	e1a03823 	lsr	r3, r3, #16
  305b2c:	e1a0e82e 	lsr	lr, lr, #16
  305b30:	e023e397 	mla	r3, r7, r3, lr
  305b34:	e08c0000 	add	r0, ip, r0
  305b38:	e1a0c800 	lsl	ip, r0, #16
  305b3c:	e0830820 	add	r0, r3, r0, lsr #16
  305b40:	e1a0382c 	lsr	r3, ip, #16
  305b44:	e1833800 	orr	r3, r3, r0, lsl #16
  305b48:	e1580006 	cmp	r8, r6
  305b4c:	e1a00820 	lsr	r0, r0, #16
  305b50:	e4813004 	str	r3, [r1], #4
  305b54:	8affffea 	bhi	305b04 <__multiply+0xc4>
  305b58:	e5850004 	str	r0, [r5, #4]
  305b5c:	e5126004 	ldr	r6, [r2, #-4]
  305b60:	e1b06826 	lsrs	r6, r6, #16
  305b64:	0a00001a 	beq	305bd4 <__multiply+0x194>
  305b68:	e59a3000 	ldr	r3, [sl]
  305b6c:	e1a0400a 	mov	r4, sl
  305b70:	e1a05003 	mov	r5, r3
  305b74:	e1a0c009 	mov	ip, r9
  305b78:	e3a00000 	mov	r0, #0
  305b7c:	ea000000 	b	305b84 <__multiply+0x144>
  305b80:	e1a0400e 	mov	r4, lr
  305b84:	e1a0e004 	mov	lr, r4
  305b88:	e1dc10b0 	ldrh	r1, [ip]
  305b8c:	e1a05825 	lsr	r5, r5, #16
  305b90:	e0255196 	mla	r5, r6, r1, r5
  305b94:	e1a01803 	lsl	r1, r3, #16
  305b98:	e0850000 	add	r0, r5, r0
  305b9c:	e1a01821 	lsr	r1, r1, #16
  305ba0:	e1813800 	orr	r3, r1, r0, lsl #16
  305ba4:	e48e3004 	str	r3, [lr], #4
  305ba8:	e5945004 	ldr	r5, [r4, #4]
  305bac:	e49c1004 	ldr	r1, [ip], #4
  305bb0:	e1a03805 	lsl	r3, r5, #16
  305bb4:	e1a03823 	lsr	r3, r3, #16
  305bb8:	e1a01821 	lsr	r1, r1, #16
  305bbc:	e0213196 	mla	r1, r6, r1, r3
  305bc0:	e158000c 	cmp	r8, ip
  305bc4:	e0813820 	add	r3, r1, r0, lsr #16
  305bc8:	e1a00823 	lsr	r0, r3, #16
  305bcc:	8affffeb 	bhi	305b80 <__multiply+0x140>
  305bd0:	e5843004 	str	r3, [r4, #4]
  305bd4:	e15b0002 	cmp	fp, r2
  305bd8:	e28aa004 	add	sl, sl, #4
  305bdc:	8affffc0 	bhi	305ae4 <__multiply+0xa4>
  305be0:	e59db008 	ldr	fp, [sp, #8]
  305be4:	e59d900c 	ldr	r9, [sp, #12]
  305be8:	e3590000 	cmp	r9, #0
  305bec:	da000009 	ble	305c18 <__multiply+0x1d8>
  305bf0:	e51b3004 	ldr	r3, [fp, #-4]
  305bf4:	e3530000 	cmp	r3, #0
  305bf8:	e24bb004 	sub	fp, fp, #4
  305bfc:	0a000003 	beq	305c10 <__multiply+0x1d0>
  305c00:	ea000004 	b	305c18 <__multiply+0x1d8>
  305c04:	e53b3004 	ldr	r3, [fp, #-4]!
  305c08:	e3530000 	cmp	r3, #0
  305c0c:	1a000001 	bne	305c18 <__multiply+0x1d8>
  305c10:	e2599001 	subs	r9, r9, #1
  305c14:	1afffffa 	bne	305c04 <__multiply+0x1c4>
  305c18:	e59d3004 	ldr	r3, [sp, #4]
  305c1c:	e1a00003 	mov	r0, r3
  305c20:	e5839010 	str	r9, [r3, #16]
  305c24:	e28dd014 	add	sp, sp, #20
  305c28:	e8bd4ff0 	pop	{r4, r5, r6, r7, r8, r9, sl, fp, lr}
  305c2c:	e12fff1e 	bx	lr

00305c30 <__pow5mult>:
  305c30:	e2123003 	ands	r3, r2, #3
  305c34:	e92d41f0 	push	{r4, r5, r6, r7, r8, lr}
  305c38:	e1a04002 	mov	r4, r2
  305c3c:	e1a07000 	mov	r7, r0
  305c40:	e1a06001 	mov	r6, r1
  305c44:	1a000025 	bne	305ce0 <__pow5mult+0xb0>
  305c48:	e1b04144 	asrs	r4, r4, #2
  305c4c:	0a000019 	beq	305cb8 <__pow5mult+0x88>
  305c50:	e5975048 	ldr	r5, [r7, #72]	; 0x48
  305c54:	e3550000 	cmp	r5, #0
  305c58:	0a000027 	beq	305cfc <__pow5mult+0xcc>
  305c5c:	e3a08000 	mov	r8, #0
  305c60:	ea000005 	b	305c7c <__pow5mult+0x4c>
  305c64:	e1b040c4 	asrs	r4, r4, #1
  305c68:	0a000012 	beq	305cb8 <__pow5mult+0x88>
  305c6c:	e5950000 	ldr	r0, [r5]
  305c70:	e3500000 	cmp	r0, #0
  305c74:	0a000012 	beq	305cc4 <__pow5mult+0x94>
  305c78:	e1a05000 	mov	r5, r0
  305c7c:	e3140001 	tst	r4, #1
  305c80:	0afffff7 	beq	305c64 <__pow5mult+0x34>
  305c84:	e1a01006 	mov	r1, r6
  305c88:	e1a02005 	mov	r2, r5
  305c8c:	e1a00007 	mov	r0, r7
  305c90:	ebffff6a 	bl	305a40 <__multiply>
  305c94:	e3560000 	cmp	r6, #0
  305c98:	15962004 	ldrne	r2, [r6, #4]
  305c9c:	1597304c 	ldrne	r3, [r7, #76]	; 0x4c
  305ca0:	17931102 	ldrne	r1, [r3, r2, lsl #2]
  305ca4:	15861000 	strne	r1, [r6]
  305ca8:	17836102 	strne	r6, [r3, r2, lsl #2]
  305cac:	e1b040c4 	asrs	r4, r4, #1
  305cb0:	e1a06000 	mov	r6, r0
  305cb4:	1affffec 	bne	305c6c <__pow5mult+0x3c>
  305cb8:	e1a00006 	mov	r0, r6
  305cbc:	e8bd41f0 	pop	{r4, r5, r6, r7, r8, lr}
  305cc0:	e12fff1e 	bx	lr
  305cc4:	e1a00007 	mov	r0, r7
  305cc8:	e1a01005 	mov	r1, r5
  305ccc:	e1a02005 	mov	r2, r5
  305cd0:	ebffff5a 	bl	305a40 <__multiply>
  305cd4:	e5850000 	str	r0, [r5]
  305cd8:	e5808000 	str	r8, [r0]
  305cdc:	eaffffe5 	b	305c78 <__pow5mult+0x48>
  305ce0:	e59f2044 	ldr	r2, [pc, #68]	; 305d2c <__pow5mult+0xfc>
  305ce4:	e2433001 	sub	r3, r3, #1
  305ce8:	e7922103 	ldr	r2, [r2, r3, lsl #2]
  305cec:	e3a03000 	mov	r3, #0
  305cf0:	ebfffe9c 	bl	305768 <__multadd>
  305cf4:	e1a06000 	mov	r6, r0
  305cf8:	eaffffd2 	b	305c48 <__pow5mult+0x18>
  305cfc:	e3a01001 	mov	r1, #1
  305d00:	e1a00007 	mov	r0, r7
  305d04:	ebfffe6c 	bl	3056bc <_Balloc>
  305d08:	e3a01001 	mov	r1, #1
  305d0c:	e3a03000 	mov	r3, #0
  305d10:	e59f2018 	ldr	r2, [pc, #24]	; 305d30 <__pow5mult+0x100>
  305d14:	e5801010 	str	r1, [r0, #16]
  305d18:	e5802014 	str	r2, [r0, #20]
  305d1c:	e1a05000 	mov	r5, r0
  305d20:	e5870048 	str	r0, [r7, #72]	; 0x48
  305d24:	e5803000 	str	r3, [r0]
  305d28:	eaffffcb 	b	305c5c <__pow5mult+0x2c>
  305d2c:	0030a060 	eorseq	sl, r0, r0, rrx
  305d30:	00000271 	andeq	r0, r0, r1, ror r2

00305d34 <__lshift>:
  305d34:	e92d43f8 	push	{r3, r4, r5, r6, r7, r8, r9, lr}
  305d38:	e5916010 	ldr	r6, [r1, #16]
  305d3c:	e1a082c2 	asr	r8, r2, #5
  305d40:	e5913008 	ldr	r3, [r1, #8]
  305d44:	e0886006 	add	r6, r8, r6
  305d48:	e2864001 	add	r4, r6, #1
  305d4c:	e1540003 	cmp	r4, r3
  305d50:	e1a05001 	mov	r5, r1
  305d54:	e1a09002 	mov	r9, r2
  305d58:	e1a07000 	mov	r7, r0
  305d5c:	e5911004 	ldr	r1, [r1, #4]
  305d60:	da000003 	ble	305d74 <__lshift+0x40>
  305d64:	e1a03083 	lsl	r3, r3, #1
  305d68:	e1540003 	cmp	r4, r3
  305d6c:	e2811001 	add	r1, r1, #1
  305d70:	cafffffb 	bgt	305d64 <__lshift+0x30>
  305d74:	e1a00007 	mov	r0, r7
  305d78:	ebfffe4f 	bl	3056bc <_Balloc>
  305d7c:	e3580000 	cmp	r8, #0
  305d80:	e280c014 	add	ip, r0, #20
  305d84:	da000007 	ble	305da8 <__lshift+0x74>
  305d88:	e3a03000 	mov	r3, #0
  305d8c:	e1a0100c 	mov	r1, ip
  305d90:	e1a02003 	mov	r2, r3
  305d94:	e2833001 	add	r3, r3, #1
  305d98:	e1530008 	cmp	r3, r8
  305d9c:	e4812004 	str	r2, [r1], #4
  305da0:	1afffffb 	bne	305d94 <__lshift+0x60>
  305da4:	e08cc103 	add	ip, ip, r3, lsl #2
  305da8:	e595e010 	ldr	lr, [r5, #16]
  305dac:	e2853014 	add	r3, r5, #20
  305db0:	e219901f 	ands	r9, r9, #31
  305db4:	e083e10e 	add	lr, r3, lr, lsl #2
  305db8:	0a000015 	beq	305e14 <__lshift+0xe0>
  305dbc:	e3a01000 	mov	r1, #0
  305dc0:	e2692020 	rsb	r2, r9, #32
  305dc4:	e5938000 	ldr	r8, [r3]
  305dc8:	e1811918 	orr	r1, r1, r8, lsl r9
  305dcc:	e1a0800c 	mov	r8, ip
  305dd0:	e48c1004 	str	r1, [ip], #4
  305dd4:	e4931004 	ldr	r1, [r3], #4
  305dd8:	e15e0003 	cmp	lr, r3
  305ddc:	e1a01231 	lsr	r1, r1, r2
  305de0:	8afffff7 	bhi	305dc4 <__lshift+0x90>
  305de4:	e3510000 	cmp	r1, #0
  305de8:	e5881004 	str	r1, [r8, #4]
  305dec:	12864002 	addne	r4, r6, #2
  305df0:	e597304c 	ldr	r3, [r7, #76]	; 0x4c
  305df4:	e5952004 	ldr	r2, [r5, #4]
  305df8:	e7931102 	ldr	r1, [r3, r2, lsl #2]
  305dfc:	e2444001 	sub	r4, r4, #1
  305e00:	e5804010 	str	r4, [r0, #16]
  305e04:	e5851000 	str	r1, [r5]
  305e08:	e7835102 	str	r5, [r3, r2, lsl #2]
  305e0c:	e8bd43f8 	pop	{r3, r4, r5, r6, r7, r8, r9, lr}
  305e10:	e12fff1e 	bx	lr
  305e14:	e24cc004 	sub	ip, ip, #4
  305e18:	e4932004 	ldr	r2, [r3], #4
  305e1c:	e15e0003 	cmp	lr, r3
  305e20:	e5ac2004 	str	r2, [ip, #4]!
  305e24:	8afffffb 	bhi	305e18 <__lshift+0xe4>
  305e28:	eafffff0 	b	305df0 <__lshift+0xbc>

00305e2c <__mcmp>:
  305e2c:	e5902010 	ldr	r2, [r0, #16]
  305e30:	e5913010 	ldr	r3, [r1, #16]
  305e34:	e0522003 	subs	r2, r2, r3
  305e38:	1a00000e 	bne	305e78 <__mcmp+0x4c>
  305e3c:	e1a03103 	lsl	r3, r3, #2
  305e40:	e2800014 	add	r0, r0, #20
  305e44:	e2811014 	add	r1, r1, #20
  305e48:	e0811003 	add	r1, r1, r3
  305e4c:	e0803003 	add	r3, r0, r3
  305e50:	ea000001 	b	305e5c <__mcmp+0x30>
  305e54:	e1500003 	cmp	r0, r3
  305e58:	2a000008 	bcs	305e80 <__mcmp+0x54>
  305e5c:	e533c004 	ldr	ip, [r3, #-4]!
  305e60:	e5312004 	ldr	r2, [r1, #-4]!
  305e64:	e15c0002 	cmp	ip, r2
  305e68:	0afffff9 	beq	305e54 <__mcmp+0x28>
  305e6c:	3a000005 	bcc	305e88 <__mcmp+0x5c>
  305e70:	e3a00001 	mov	r0, #1
  305e74:	e12fff1e 	bx	lr
  305e78:	e1a00002 	mov	r0, r2
  305e7c:	e12fff1e 	bx	lr
  305e80:	e3a00000 	mov	r0, #0
  305e84:	e12fff1e 	bx	lr
  305e88:	e3e00000 	mvn	r0, #0
  305e8c:	e12fff1e 	bx	lr

00305e90 <__mdiff>:
  305e90:	e92d43f8 	push	{r3, r4, r5, r6, r7, r8, r9, lr}
  305e94:	e1a04001 	mov	r4, r1
  305e98:	e1a05000 	mov	r5, r0
  305e9c:	e1a01002 	mov	r1, r2
  305ea0:	e1a00004 	mov	r0, r4
  305ea4:	e1a08002 	mov	r8, r2
  305ea8:	ebffffdf 	bl	305e2c <__mcmp>
  305eac:	e2506000 	subs	r6, r0, #0
  305eb0:	0a000043 	beq	305fc4 <__mdiff+0x134>
  305eb4:	b1a03004 	movlt	r3, r4
  305eb8:	b1a04008 	movlt	r4, r8
  305ebc:	e1a00005 	mov	r0, r5
  305ec0:	e5941004 	ldr	r1, [r4, #4]
  305ec4:	b1a08003 	movlt	r8, r3
  305ec8:	b3a09001 	movlt	r9, #1
  305ecc:	a3a09000 	movge	r9, #0
  305ed0:	ebfffdf9 	bl	3056bc <_Balloc>
  305ed4:	e1a06000 	mov	r6, r0
  305ed8:	e2883014 	add	r3, r8, #20
  305edc:	e1a00003 	mov	r0, r3
  305ee0:	e3a01000 	mov	r1, #0
  305ee4:	e2845014 	add	r5, r4, #20
  305ee8:	e5987010 	ldr	r7, [r8, #16]
  305eec:	e5944010 	ldr	r4, [r4, #16]
  305ef0:	e586900c 	str	r9, [r6, #12]
  305ef4:	e1a0e005 	mov	lr, r5
  305ef8:	e286c014 	add	ip, r6, #20
  305efc:	e0855104 	add	r5, r5, r4, lsl #2
  305f00:	e0837107 	add	r7, r3, r7, lsl #2
  305f04:	e49e9004 	ldr	r9, [lr], #4
  305f08:	e4903004 	ldr	r3, [r0], #4
  305f0c:	e1a08809 	lsl	r8, r9, #16
  305f10:	e1a02803 	lsl	r2, r3, #16
  305f14:	e0811828 	add	r1, r1, r8, lsr #16
  305f18:	e0411822 	sub	r1, r1, r2, lsr #16
  305f1c:	e1a03823 	lsr	r3, r3, #16
  305f20:	e1a08801 	lsl	r8, r1, #16
  305f24:	e0633829 	rsb	r3, r3, r9, lsr #16
  305f28:	e0832841 	add	r2, r3, r1, asr #16
  305f2c:	e1a03828 	lsr	r3, r8, #16
  305f30:	e1833802 	orr	r3, r3, r2, lsl #16
  305f34:	e1570000 	cmp	r7, r0
  305f38:	e48c3004 	str	r3, [ip], #4
  305f3c:	e1a01842 	asr	r1, r2, #16
  305f40:	e1a0800e 	mov	r8, lr
  305f44:	8affffee 	bhi	305f04 <__mdiff+0x74>
  305f48:	e155000e 	cmp	r5, lr
  305f4c:	e1a0700c 	mov	r7, ip
  305f50:	9a000010 	bls	305f98 <__mdiff+0x108>
  305f54:	e4983004 	ldr	r3, [r8], #4
  305f58:	e1a00803 	lsl	r0, r3, #16
  305f5c:	e0812820 	add	r2, r1, r0, lsr #16
  305f60:	e1a01802 	lsl	r1, r2, #16
  305f64:	e1a03823 	lsr	r3, r3, #16
  305f68:	e0832842 	add	r2, r3, r2, asr #16
  305f6c:	e1a03821 	lsr	r3, r1, #16
  305f70:	e1833802 	orr	r3, r3, r2, lsl #16
  305f74:	e1550008 	cmp	r5, r8
  305f78:	e48c3004 	str	r3, [ip], #4
  305f7c:	e1a01842 	asr	r1, r2, #16
  305f80:	8afffff3 	bhi	305f54 <__mdiff+0xc4>
  305f84:	e1e0c00e 	mvn	ip, lr
  305f88:	e08cc005 	add	ip, ip, r5
  305f8c:	e3ccc003 	bic	ip, ip, #3
  305f90:	e28cc004 	add	ip, ip, #4
  305f94:	e087c00c 	add	ip, r7, ip
  305f98:	e3530000 	cmp	r3, #0
  305f9c:	e24cc004 	sub	ip, ip, #4
  305fa0:	1a000003 	bne	305fb4 <__mdiff+0x124>
  305fa4:	e53c3004 	ldr	r3, [ip, #-4]!
  305fa8:	e3530000 	cmp	r3, #0
  305fac:	e2444001 	sub	r4, r4, #1
  305fb0:	0afffffb 	beq	305fa4 <__mdiff+0x114>
  305fb4:	e1a00006 	mov	r0, r6
  305fb8:	e5864010 	str	r4, [r6, #16]
  305fbc:	e8bd43f8 	pop	{r3, r4, r5, r6, r7, r8, r9, lr}
  305fc0:	e12fff1e 	bx	lr
  305fc4:	e1a00005 	mov	r0, r5
  305fc8:	e1a01006 	mov	r1, r6
  305fcc:	ebfffdba 	bl	3056bc <_Balloc>
  305fd0:	e3a03001 	mov	r3, #1
  305fd4:	e5806014 	str	r6, [r0, #20]
  305fd8:	e5803010 	str	r3, [r0, #16]
  305fdc:	e8bd43f8 	pop	{r3, r4, r5, r6, r7, r8, r9, lr}
  305fe0:	e12fff1e 	bx	lr

00305fe4 <__ulp>:
  305fe4:	e59f3058 	ldr	r3, [pc, #88]	; 306044 <__ulp+0x60>
  305fe8:	e0033001 	and	r3, r3, r1
  305fec:	e243350d 	sub	r3, r3, #54525952	; 0x3400000
  305ff0:	e3530000 	cmp	r3, #0
  305ff4:	da000002 	ble	306004 <__ulp+0x20>
  305ff8:	e3a00000 	mov	r0, #0
  305ffc:	e1a01003 	mov	r1, r3
  306000:	e12fff1e 	bx	lr
  306004:	e2633000 	rsb	r3, r3, #0
  306008:	e1a03a43 	asr	r3, r3, #20
  30600c:	e3530013 	cmp	r3, #19
  306010:	da000007 	ble	306034 <__ulp+0x50>
  306014:	e3530032 	cmp	r3, #50	; 0x32
  306018:	d3a02001 	movle	r2, #1
  30601c:	c3a03001 	movgt	r3, #1
  306020:	d2633033 	rsble	r3, r3, #51	; 0x33
  306024:	d1a03312 	lslle	r3, r2, r3
  306028:	e3a01000 	mov	r1, #0
  30602c:	e1a00003 	mov	r0, r3
  306030:	e12fff1e 	bx	lr
  306034:	e3a02702 	mov	r2, #524288	; 0x80000
  306038:	e3a00000 	mov	r0, #0
  30603c:	e1a01352 	asr	r1, r2, r3
  306040:	e12fff1e 	bx	lr
  306044:	7ff00000 	svcvc	0x00f00000	; IMB

00306048 <__b2d>:
  306048:	e92d40f8 	push	{r3, r4, r5, r6, r7, lr}
  30604c:	e5905010 	ldr	r5, [r0, #16]
  306050:	e2804014 	add	r4, r0, #20
  306054:	e0845105 	add	r5, r4, r5, lsl #2
  306058:	e5157004 	ldr	r7, [r5, #-4]
  30605c:	e1a00007 	mov	r0, r7
  306060:	e1a06001 	mov	r6, r1
  306064:	ebfffe30 	bl	30592c <__hi0bits>
  306068:	e2603020 	rsb	r3, r0, #32
  30606c:	e350000a 	cmp	r0, #10
  306070:	e5863000 	str	r3, [r6]
  306074:	e2451004 	sub	r1, r5, #4
  306078:	ca00000d 	bgt	3060b4 <__b2d+0x6c>
  30607c:	e260e00b 	rsb	lr, r0, #11
  306080:	e1a0ce37 	lsr	ip, r7, lr
  306084:	e1540001 	cmp	r4, r1
  306088:	e38c15ff 	orr	r1, ip, #1069547520	; 0x3fc00000
  30608c:	e3813603 	orr	r3, r1, #3145728	; 0x300000
  306090:	23a01000 	movcs	r1, #0
  306094:	35151008 	ldrcc	r1, [r5, #-8]
  306098:	e2800015 	add	r0, r0, #21
  30609c:	31a01e31 	lsrcc	r1, r1, lr
  3060a0:	e1812017 	orr	r2, r1, r7, lsl r0
  3060a4:	e1a00002 	mov	r0, r2
  3060a8:	e1a01003 	mov	r1, r3
  3060ac:	e8bd40f8 	pop	{r3, r4, r5, r6, r7, lr}
  3060b0:	e12fff1e 	bx	lr
  3060b4:	e1540001 	cmp	r4, r1
  3060b8:	2a000011 	bcs	306104 <__b2d+0xbc>
  3060bc:	e250e00b 	subs	lr, r0, #11
  3060c0:	e2456008 	sub	r6, r5, #8
  3060c4:	e515c008 	ldr	ip, [r5, #-8]
  3060c8:	0a000010 	beq	306110 <__b2d+0xc8>
  3060cc:	e260002b 	rsb	r0, r0, #43	; 0x2b
  3060d0:	e1540006 	cmp	r4, r6
  3060d4:	e1a0103c 	lsr	r1, ip, r0
  3060d8:	23a00000 	movcs	r0, #0
  3060dc:	e1817e17 	orr	r7, r1, r7, lsl lr
  3060e0:	3515100c 	ldrcc	r1, [r5, #-12]
  3060e4:	e38775ff 	orr	r7, r7, #1069547520	; 0x3fc00000
  3060e8:	e3873603 	orr	r3, r7, #3145728	; 0x300000
  3060ec:	31a00031 	lsrcc	r0, r1, r0
  3060f0:	e1802e1c 	orr	r2, r0, ip, lsl lr
  3060f4:	e1a01003 	mov	r1, r3
  3060f8:	e1a00002 	mov	r0, r2
  3060fc:	e8bd40f8 	pop	{r3, r4, r5, r6, r7, lr}
  306100:	e12fff1e 	bx	lr
  306104:	e250e00b 	subs	lr, r0, #11
  306108:	01a0c00e 	moveq	ip, lr
  30610c:	1a000006 	bne	30612c <__b2d+0xe4>
  306110:	e1a0200c 	mov	r2, ip
  306114:	e38775ff 	orr	r7, r7, #1069547520	; 0x3fc00000
  306118:	e3873603 	orr	r3, r7, #3145728	; 0x300000
  30611c:	e1a01003 	mov	r1, r3
  306120:	e1a00002 	mov	r0, r2
  306124:	e8bd40f8 	pop	{r3, r4, r5, r6, r7, lr}
  306128:	e12fff1e 	bx	lr
  30612c:	e3a00000 	mov	r0, #0
  306130:	e1a01e17 	lsl	r1, r7, lr
  306134:	e38115ff 	orr	r1, r1, #1069547520	; 0x3fc00000
  306138:	e3813603 	orr	r3, r1, #3145728	; 0x300000
  30613c:	e1a0c000 	mov	ip, r0
  306140:	eaffffea 	b	3060f0 <__b2d+0xa8>

00306144 <__d2b>:
  306144:	e92d43f0 	push	{r4, r5, r6, r7, r8, r9, lr}
  306148:	e1a04003 	mov	r4, r3
  30614c:	e24dd00c 	sub	sp, sp, #12
  306150:	e1a08002 	mov	r8, r2
  306154:	e3a01001 	mov	r1, #1
  306158:	e59d6028 	ldr	r6, [sp, #40]	; 0x28
  30615c:	e59d502c 	ldr	r5, [sp, #44]	; 0x2c
  306160:	ebfffd55 	bl	3056bc <_Balloc>
  306164:	e3c43102 	bic	r3, r4, #-2147483648	; 0x80000000
  306168:	e3c444ff 	bic	r4, r4, #-16777216	; 0xff000000
  30616c:	e1b09a23 	lsrs	r9, r3, #20
  306170:	e3c4460f 	bic	r4, r4, #15728640	; 0xf00000
  306174:	13844601 	orrne	r4, r4, #1048576	; 0x100000
  306178:	e3580000 	cmp	r8, #0
  30617c:	e1a07000 	mov	r7, r0
  306180:	e58d4004 	str	r4, [sp, #4]
  306184:	0a00001d 	beq	306200 <__d2b+0xbc>
  306188:	e28d0008 	add	r0, sp, #8
  30618c:	e5208008 	str	r8, [r0, #-8]!
  306190:	ebfffdfc 	bl	305988 <__lo0bits>
  306194:	e89d000c 	ldm	sp, {r2, r3}
  306198:	e3500000 	cmp	r0, #0
  30619c:	12601020 	rsbne	r1, r0, #32
  3061a0:	11822113 	orrne	r2, r2, r3, lsl r1
  3061a4:	11a03033 	lsrne	r3, r3, r0
  3061a8:	15872014 	strne	r2, [r7, #20]
  3061ac:	158d3004 	strne	r3, [sp, #4]
  3061b0:	05872014 	streq	r2, [r7, #20]
  3061b4:	e3530000 	cmp	r3, #0
  3061b8:	13a04002 	movne	r4, #2
  3061bc:	03a04001 	moveq	r4, #1
  3061c0:	e3590000 	cmp	r9, #0
  3061c4:	e5873018 	str	r3, [r7, #24]
  3061c8:	e5874010 	str	r4, [r7, #16]
  3061cc:	1a000015 	bne	306228 <__d2b+0xe4>
  3061d0:	e2400e43 	sub	r0, r0, #1072	; 0x430
  3061d4:	e0873104 	add	r3, r7, r4, lsl #2
  3061d8:	e2400002 	sub	r0, r0, #2
  3061dc:	e5860000 	str	r0, [r6]
  3061e0:	e5930010 	ldr	r0, [r3, #16]
  3061e4:	ebfffdd0 	bl	30592c <__hi0bits>
  3061e8:	e0600284 	rsb	r0, r0, r4, lsl #5
  3061ec:	e5850000 	str	r0, [r5]
  3061f0:	e1a00007 	mov	r0, r7
  3061f4:	e28dd00c 	add	sp, sp, #12
  3061f8:	e8bd43f0 	pop	{r4, r5, r6, r7, r8, r9, lr}
  3061fc:	e12fff1e 	bx	lr
  306200:	e28d0004 	add	r0, sp, #4
