
kernel//kernel.elf:     file format elf32-littlearm


Disassembly of section .text:

00008000 <__start>:
    8000:	e10f0000 	mrs	r0, CPSR
    8004:	e321f0d2 	msr	CPSR_c, #210	; 0xd2
    8008:	e59fd034 	ldr	sp, [pc, #52]	; 8044 <hang+0x8>
    800c:	e121f000 	msr	CPSR_c, r0
    8010:	e59fd030 	ldr	sp, [pc, #48]	; 8048 <hang+0xc>
    8014:	e59f0030 	ldr	r0, [pc, #48]	; 804c <hang+0x10>
    8018:	e59f1030 	ldr	r1, [pc, #48]	; 8050 <hang+0x14>
    801c:	e3a02000 	mov	r2, #0
    8020:	e3a03000 	mov	r3, #0
    8024:	e3a04000 	mov	r4, #0
    8028:	e3a05000 	mov	r5, #0

0000802c <bss_loop>:
    802c:	e8a0003c 	stmia	r0!, {r2, r3, r4, r5}
    8030:	e1500001 	cmp	r0, r1
    8034:	3afffffc 	bcc	802c <bss_loop>
    8038:	eb000118 	bl	84a0 <kernel_main>

0000803c <hang>:
    803c:	e320f003 	wfi
    8040:	eafffffd 	b	803c <hang>
    8044:	0012e000 	andseq	lr, r2, r0
    8048:	0011d000 	andseq	sp, r1, r0
    804c:	0000c000 	andeq	ip, r0, r0
    8050:	0000d000 	andeq	sp, r0, r0

00008054 <led_init>:
    8054:	e92d4008 	push	{r3, lr}
    8058:	e3a0002f 	mov	r0, #47	; 0x2f
    805c:	e3a01001 	mov	r1, #1
    8060:	eb000013 	bl	80b4 <gpio_config>
    8064:	e3a00023 	mov	r0, #35	; 0x23
    8068:	e3a01001 	mov	r1, #1
    806c:	eb000010 	bl	80b4 <gpio_config>
    8070:	e8bd8008 	pop	{r3, pc}

00008074 <led_set_green>:
    8074:	e92d4008 	push	{r3, lr}
    8078:	e3a0002f 	mov	r0, #47	; 0x2f
    807c:	eb000021 	bl	8108 <gpio_set>
    8080:	e8bd8008 	pop	{r3, pc}

00008084 <led_clr_green>:
    8084:	e92d4008 	push	{r3, lr}
    8088:	e3a0002f 	mov	r0, #47	; 0x2f
    808c:	eb00002e 	bl	814c <gpio_clr>
    8090:	e8bd8008 	pop	{r3, pc}

00008094 <led_set_red>:
    8094:	e92d4008 	push	{r3, lr}
    8098:	e3a00023 	mov	r0, #35	; 0x23
    809c:	eb000019 	bl	8108 <gpio_set>
    80a0:	e8bd8008 	pop	{r3, pc}

000080a4 <led_clr_red>:
    80a4:	e92d4008 	push	{r3, lr}
    80a8:	e3a00023 	mov	r0, #35	; 0x23
    80ac:	eb000026 	bl	814c <gpio_clr>
    80b0:	e8bd8008 	pop	{r3, pc}

000080b4 <gpio_config>:
    80b4:	e3510007 	cmp	r1, #7
    80b8:	93500035 	cmpls	r0, #53	; 0x35
    80bc:	812fff1e 	bxhi	lr
    80c0:	e30c2ccd 	movw	r2, #52429	; 0xcccd
    80c4:	e34c2ccc 	movt	r2, #52428	; 0xcccc
    80c8:	e0832290 	umull	r2, r3, r0, r2
    80cc:	e1a0c1a3 	lsr	ip, r3, #3
    80d0:	e6ef307c 	uxtb	r3, ip
    80d4:	e1a03103 	lsl	r3, r3, #2
    80d8:	e283343f 	add	r3, r3, #1056964608	; 0x3f000000
    80dc:	e2833602 	add	r3, r3, #2097152	; 0x200000
    80e0:	e5932000 	ldr	r2, [r3]
    80e4:	e08cc10c 	add	ip, ip, ip, lsl #2
    80e8:	e040008c 	sub	r0, r0, ip, lsl #1
    80ec:	e6ef0070 	uxtb	r0, r0
    80f0:	e0800080 	add	r0, r0, r0, lsl #1
    80f4:	e3a0c007 	mov	ip, #7
    80f8:	e1c2201c 	bic	r2, r2, ip, lsl r0
    80fc:	e1820011 	orr	r0, r2, r1, lsl r0
    8100:	e5830000 	str	r0, [r3]
    8104:	e12fff1e 	bx	lr

00008108 <gpio_set>:
    8108:	e3500035 	cmp	r0, #53	; 0x35
    810c:	812fff1e 	bxhi	lr
    8110:	e350001f 	cmp	r0, #31
    8114:	9a000006 	bls	8134 <gpio_set+0x2c>
    8118:	e2400020 	sub	r0, r0, #32
    811c:	e3a03001 	mov	r3, #1
    8120:	e1a00013 	lsl	r0, r3, r0
    8124:	e3a03000 	mov	r3, #0
    8128:	e3433f20 	movt	r3, #16160	; 0x3f20
    812c:	e5830020 	str	r0, [r3, #32]
    8130:	e12fff1e 	bx	lr
    8134:	e3a03001 	mov	r3, #1
    8138:	e1a00013 	lsl	r0, r3, r0
    813c:	e3a03000 	mov	r3, #0
    8140:	e3433f20 	movt	r3, #16160	; 0x3f20
    8144:	e583001c 	str	r0, [r3, #28]
    8148:	e12fff1e 	bx	lr

0000814c <gpio_clr>:
    814c:	e3500035 	cmp	r0, #53	; 0x35
    8150:	812fff1e 	bxhi	lr
    8154:	e350001f 	cmp	r0, #31
    8158:	9a000006 	bls	8178 <gpio_clr+0x2c>
    815c:	e2400020 	sub	r0, r0, #32
    8160:	e3a03001 	mov	r3, #1
    8164:	e1a00013 	lsl	r0, r3, r0
    8168:	e3a03000 	mov	r3, #0
    816c:	e3433f20 	movt	r3, #16160	; 0x3f20
    8170:	e583002c 	str	r0, [r3, #44]	; 0x2c
    8174:	e12fff1e 	bx	lr
    8178:	e3a03001 	mov	r3, #1
    817c:	e1a00013 	lsl	r0, r3, r0
    8180:	e3a03000 	mov	r3, #0
    8184:	e3433f20 	movt	r3, #16160	; 0x3f20
    8188:	e5830028 	str	r0, [r3, #40]	; 0x28
    818c:	e12fff1e 	bx	lr

00008190 <gpio_set_pull>:
    8190:	e3510002 	cmp	r1, #2
    8194:	93500035 	cmpls	r0, #53	; 0x35
    8198:	812fff1e 	bxhi	lr
    819c:	e92d4038 	push	{r3, r4, r5, lr}
    81a0:	e1a04000 	mov	r4, r0
    81a4:	e3a03000 	mov	r3, #0
    81a8:	e3433f20 	movt	r3, #16160	; 0x3f20
    81ac:	e5831094 	str	r1, [r3, #148]	; 0x94
    81b0:	e3a00096 	mov	r0, #150	; 0x96
    81b4:	eb000644 	bl	9acc <delay_cycles>
    81b8:	e354001f 	cmp	r4, #31
    81bc:	9a00000a 	bls	81ec <gpio_set_pull+0x5c>
    81c0:	e2440020 	sub	r0, r4, #32
    81c4:	e3a04001 	mov	r4, #1
    81c8:	e1a00014 	lsl	r0, r4, r0
    81cc:	e3a05000 	mov	r5, #0
    81d0:	e3435f20 	movt	r5, #16160	; 0x3f20
    81d4:	e585009c 	str	r0, [r5, #156]	; 0x9c
    81d8:	e3a00096 	mov	r0, #150	; 0x96
    81dc:	eb00063a 	bl	9acc <delay_cycles>
    81e0:	e3a03000 	mov	r3, #0
    81e4:	e585309c 	str	r3, [r5, #156]	; 0x9c
    81e8:	e8bd8038 	pop	{r3, r4, r5, pc}
    81ec:	e3a00001 	mov	r0, #1
    81f0:	e1a00410 	lsl	r0, r0, r4
    81f4:	e3a05000 	mov	r5, #0
    81f8:	e3435f20 	movt	r5, #16160	; 0x3f20
    81fc:	e5850098 	str	r0, [r5, #152]	; 0x98
    8200:	e3a00096 	mov	r0, #150	; 0x96
    8204:	eb000630 	bl	9acc <delay_cycles>
    8208:	e3a03000 	mov	r3, #0
    820c:	e5853098 	str	r3, [r5, #152]	; 0x98
    8210:	e8bd8038 	pop	{r3, r4, r5, pc}

00008214 <gpio_get_level>:
    8214:	e3500035 	cmp	r0, #53	; 0x35
    8218:	8a000008 	bhi	8240 <gpio_get_level+0x2c>
    821c:	e350001f 	cmp	r0, #31
    8220:	e3a03000 	mov	r3, #0
    8224:	e3433f20 	movt	r3, #16160	; 0x3f20
    8228:	85933038 	ldrhi	r3, [r3, #56]	; 0x38
    822c:	82400020 	subhi	r0, r0, #32
    8230:	95933034 	ldrls	r3, [r3, #52]	; 0x34
    8234:	e1a00033 	lsr	r0, r3, r0
    8238:	e2000001 	and	r0, r0, #1
    823c:	e12fff1e 	bx	lr
    8240:	e3a000ff 	mov	r0, #255	; 0xff
    8244:	e12fff1e 	bx	lr

00008248 <adc_init>:
    8248:	e92d4008 	push	{r3, lr}
    824c:	e30005dc 	movw	r0, #1500	; 0x5dc
    8250:	eb00002d 	bl	830c <i2c_master_init>
    8254:	e8bd8008 	pop	{r3, pc}

00008258 <adc_read>:
    8258:	e52de004 	push	{lr}		; (str lr, [sp, #-4]!)
    825c:	e24dd014 	sub	sp, sp, #20
    8260:	e3500000 	cmp	r0, #0
    8264:	1a00000a 	bne	8294 <adc_read+0x3c>
    8268:	e30b3000 	movw	r3, #45056	; 0xb000
    826c:	e3403000 	movt	r3, #0
    8270:	e1d320b0 	ldrh	r2, [r3]
    8274:	e5d33002 	ldrb	r3, [r3, #2]
    8278:	e1cd20b4 	strh	r2, [sp, #4]
    827c:	e5cd3006 	strb	r3, [sp, #6]
    8280:	e28d0004 	add	r0, sp, #4
    8284:	e3a01003 	mov	r1, #3
    8288:	e3a02049 	mov	r2, #73	; 0x49
    828c:	eb000033 	bl	8360 <i2c_master_write>
    8290:	ea00000c 	b	82c8 <adc_read+0x70>
    8294:	e3500001 	cmp	r0, #1
    8298:	130f0fff 	movwne	r0, #65535	; 0xffff
    829c:	1a000018 	bne	8304 <adc_read+0xac>
    82a0:	e30b3000 	movw	r3, #45056	; 0xb000
    82a4:	e3403000 	movt	r3, #0
    82a8:	e1f320b4 	ldrh	r2, [r3, #4]!
    82ac:	e5d33002 	ldrb	r3, [r3, #2]
    82b0:	e1cd20b4 	strh	r2, [sp, #4]
    82b4:	e5cd3006 	strb	r3, [sp, #6]
    82b8:	e28d0004 	add	r0, sp, #4
    82bc:	e3a01003 	mov	r1, #3
    82c0:	e3a02049 	mov	r2, #73	; 0x49
    82c4:	eb000025 	bl	8360 <i2c_master_write>
    82c8:	e28d0010 	add	r0, sp, #16
    82cc:	e3a03000 	mov	r3, #0
    82d0:	e5603004 	strb	r3, [r0, #-4]!
    82d4:	e3a01001 	mov	r1, #1
    82d8:	e3a02049 	mov	r2, #73	; 0x49
    82dc:	eb00001f 	bl	8360 <i2c_master_write>
    82e0:	e28d0008 	add	r0, sp, #8
    82e4:	e3a01002 	mov	r1, #2
    82e8:	e3a02049 	mov	r2, #73	; 0x49
    82ec:	eb000044 	bl	8404 <i2c_master_read>
    82f0:	e5dd0008 	ldrb	r0, [sp, #8]
    82f4:	e5dd3009 	ldrb	r3, [sp, #9]
    82f8:	e1a03223 	lsr	r3, r3, #4
    82fc:	e0830200 	add	r0, r3, r0, lsl #4
    8300:	eaffffff 	b	8304 <adc_read+0xac>
    8304:	e28dd014 	add	sp, sp, #20
    8308:	e49df004 	pop	{pc}		; (ldr pc, [sp], #4)

0000830c <i2c_master_init>:
    830c:	e92d4008 	push	{r3, lr}
    8310:	e3a00002 	mov	r0, #2
    8314:	e3a01000 	mov	r1, #0
    8318:	ebffff9c 	bl	8190 <gpio_set_pull>
    831c:	e3a00003 	mov	r0, #3
    8320:	e3a01000 	mov	r1, #0
    8324:	ebffff99 	bl	8190 <gpio_set_pull>
    8328:	e3a00002 	mov	r0, #2
    832c:	e3a01004 	mov	r1, #4
    8330:	ebffff5f 	bl	80b4 <gpio_config>
    8334:	e3a00003 	mov	r0, #3
    8338:	e3a01004 	mov	r1, #4
    833c:	ebffff5c 	bl	80b4 <gpio_config>
    8340:	e3a03901 	mov	r3, #16384	; 0x4000
    8344:	e3433f80 	movt	r3, #16256	; 0x3f80
    8348:	e3a02902 	mov	r2, #32768	; 0x8000
    834c:	e5832000 	str	r2, [r3]
    8350:	e5932000 	ldr	r2, [r3]
    8354:	e3822030 	orr	r2, r2, #48	; 0x30
    8358:	e5832000 	str	r2, [r3]
    835c:	e8bd8008 	pop	{r3, pc}

00008360 <i2c_master_write>:
    8360:	e3510010 	cmp	r1, #16
    8364:	8a000022 	bhi	83f4 <i2c_master_write+0x94>
    8368:	e3120080 	tst	r2, #128	; 0x80
    836c:	1a000022 	bne	83fc <i2c_master_write+0x9c>
    8370:	e3a03901 	mov	r3, #16384	; 0x4000
    8374:	e3433f80 	movt	r3, #16256	; 0x3f80
    8378:	e5831008 	str	r1, [r3, #8]
    837c:	e583200c 	str	r2, [r3, #12]
    8380:	e5932000 	ldr	r2, [r3]
    8384:	e3822030 	orr	r2, r2, #48	; 0x30
    8388:	e5832000 	str	r2, [r3]
    838c:	e3510000 	cmp	r1, #0
    8390:	da000007 	ble	83b4 <i2c_master_write+0x54>
    8394:	e1a03000 	mov	r3, r0
    8398:	e0800001 	add	r0, r0, r1
    839c:	e3a01901 	mov	r1, #16384	; 0x4000
    83a0:	e3431f80 	movt	r1, #16256	; 0x3f80
    83a4:	e4d32001 	ldrb	r2, [r3], #1
    83a8:	e5812010 	str	r2, [r1, #16]
    83ac:	e1530000 	cmp	r3, r0
    83b0:	1afffffb 	bne	83a4 <i2c_master_write+0x44>
    83b4:	e3a03901 	mov	r3, #16384	; 0x4000
    83b8:	e3433f80 	movt	r3, #16256	; 0x3f80
    83bc:	e3082080 	movw	r2, #32896	; 0x8080
    83c0:	e5832000 	str	r2, [r3]
    83c4:	e3a02901 	mov	r2, #16384	; 0x4000
    83c8:	e3432f80 	movt	r2, #16256	; 0x3f80
    83cc:	e5923004 	ldr	r3, [r2, #4]
    83d0:	e3130002 	tst	r3, #2
    83d4:	0afffffc 	beq	83cc <i2c_master_write+0x6c>
    83d8:	e3a03901 	mov	r3, #16384	; 0x4000
    83dc:	e3433f80 	movt	r3, #16256	; 0x3f80
    83e0:	e5932004 	ldr	r2, [r3, #4]
    83e4:	e3822002 	orr	r2, r2, #2
    83e8:	e5832004 	str	r2, [r3, #4]
    83ec:	e3a00000 	mov	r0, #0
    83f0:	e12fff1e 	bx	lr
    83f4:	e3a000ff 	mov	r0, #255	; 0xff
    83f8:	e12fff1e 	bx	lr
    83fc:	e3a000ff 	mov	r0, #255	; 0xff
    8400:	e12fff1e 	bx	lr

00008404 <i2c_master_read>:
    8404:	e3510010 	cmp	r1, #16
    8408:	8a000020 	bhi	8490 <i2c_master_read+0x8c>
    840c:	e3120080 	tst	r2, #128	; 0x80
    8410:	1a000020 	bne	8498 <i2c_master_read+0x94>
    8414:	e3a03901 	mov	r3, #16384	; 0x4000
    8418:	e3433f80 	movt	r3, #16256	; 0x3f80
    841c:	e5831008 	str	r1, [r3, #8]
    8420:	e583200c 	str	r2, [r3, #12]
    8424:	e5932000 	ldr	r2, [r3]
    8428:	e3822030 	orr	r2, r2, #48	; 0x30
    842c:	e5832000 	str	r2, [r3]
    8430:	e3082081 	movw	r2, #32897	; 0x8081
    8434:	e5832000 	str	r2, [r3]
    8438:	e3a02901 	mov	r2, #16384	; 0x4000
    843c:	e3432f80 	movt	r2, #16256	; 0x3f80
    8440:	e5923004 	ldr	r3, [r2, #4]
    8444:	e3130002 	tst	r3, #2
    8448:	0afffffc 	beq	8440 <i2c_master_read+0x3c>
    844c:	e3510000 	cmp	r1, #0
    8450:	da000007 	ble	8474 <i2c_master_read+0x70>
    8454:	e1a03000 	mov	r3, r0
    8458:	e0800001 	add	r0, r0, r1
    845c:	e3a0c901 	mov	ip, #16384	; 0x4000
    8460:	e343cf80 	movt	ip, #16256	; 0x3f80
    8464:	e59c2010 	ldr	r2, [ip, #16]
    8468:	e4c32001 	strb	r2, [r3], #1
    846c:	e1530000 	cmp	r3, r0
    8470:	1afffffb 	bne	8464 <i2c_master_read+0x60>
    8474:	e3a03901 	mov	r3, #16384	; 0x4000
    8478:	e3433f80 	movt	r3, #16256	; 0x3f80
    847c:	e5932004 	ldr	r2, [r3, #4]
    8480:	e3822002 	orr	r2, r2, #2
    8484:	e5832004 	str	r2, [r3, #4]
    8488:	e6ef0071 	uxtb	r0, r1
    848c:	e12fff1e 	bx	lr
    8490:	e3a000ff 	mov	r0, #255	; 0xff
    8494:	e12fff1e 	bx	lr
    8498:	e3a000ff 	mov	r0, #255	; 0xff
    849c:	e12fff1e 	bx	lr

000084a0 <kernel_main>:
    84a0:	e92d4008 	push	{r3, lr}
    84a4:	eb0002e3 	bl	9038 <timer_stop>
    84a8:	eb00058e 	bl	9ae8 <disable_interrupts>
    84ac:	eb0002f2 	bl	907c <timer_clear_pending>
    84b0:	eb0005a5 	bl	9b4c <install_interrupt_table>
    84b4:	eb0002f6 	bl	9094 <uart_init>
    84b8:	eb0005fa 	bl	9ca8 <enter_user_mode>
    84bc:	eafffffe 	b	84bc <kernel_main+0x1c>

000084c0 <get_top_priority>:
    84c0:	e92d4010 	push	{r4, lr}
    84c4:	e3a01020 	mov	r1, #32
    84c8:	e1a00001 	mov	r0, r1
    84cc:	e3a03000 	mov	r3, #0
    84d0:	e30cc018 	movw	ip, #49176	; 0xc018
    84d4:	e340c000 	movt	ip, #0
    84d8:	e30ce010 	movw	lr, #49168	; 0xc010
    84dc:	e340e000 	movt	lr, #0
    84e0:	e3a04001 	mov	r4, #1
    84e4:	e0632183 	rsb	r2, r3, r3, lsl #3
    84e8:	e08c2202 	add	r2, ip, r2, lsl #4
    84ec:	e5d22002 	ldrb	r2, [r2, #2]
    84f0:	e6ef2072 	uxtb	r2, r2
    84f4:	e1520001 	cmp	r2, r1
    84f8:	8a000006 	bhi	8518 <get_top_priority+0x58>
    84fc:	e59e2000 	ldr	r2, [lr]
    8500:	e0122314 	ands	r2, r2, r4, lsl r3
    8504:	10632183 	rsbne	r2, r3, r3, lsl #3
    8508:	108c2202 	addne	r2, ip, r2, lsl #4
    850c:	15d21002 	ldrbne	r1, [r2, #2]
    8510:	16ef1071 	uxtbne	r1, r1
    8514:	11a00003 	movne	r0, r3
    8518:	e2833001 	add	r3, r3, #1
    851c:	e3530020 	cmp	r3, #32
    8520:	1affffef 	bne	84e4 <get_top_priority+0x24>
    8524:	e8bd8010 	pop	{r4, pc}

00008528 <store_current_task>:
    8528:	e30c3008 	movw	r3, #49160	; 0xc008
    852c:	e3403000 	movt	r3, #0
    8530:	e5933000 	ldr	r3, [r3]
    8534:	e3730001 	cmn	r3, #1
    8538:	012fff1e 	bxeq	lr
    853c:	e52de004 	push	{lr}		; (str lr, [sp, #-4]!)
    8540:	e30c3008 	movw	r3, #49160	; 0xc008
    8544:	e3403000 	movt	r3, #0
    8548:	e5933000 	ldr	r3, [r3]
    854c:	e30c2018 	movw	r2, #49176	; 0xc018
    8550:	e3402000 	movt	r2, #0
    8554:	e0633183 	rsb	r3, r3, r3, lsl #3
    8558:	e1a03203 	lsl	r3, r3, #4
    855c:	e7d23003 	ldrb	r3, [r2, r3]
    8560:	e31300ff 	tst	r3, #255	; 0xff
    8564:	1a000009 	bne	8590 <store_current_task+0x68>
    8568:	e30c3008 	movw	r3, #49160	; 0xc008
    856c:	e3403000 	movt	r3, #0
    8570:	e5933000 	ldr	r3, [r3]
    8574:	e30c2018 	movw	r2, #49176	; 0xc018
    8578:	e3402000 	movt	r2, #0
    857c:	e0633183 	rsb	r3, r3, r3, lsl #3
    8580:	e1a03203 	lsl	r3, r3, #4
    8584:	e3a01001 	mov	r1, #1
    8588:	e7c21003 	strb	r1, [r2, r3]
    858c:	ea000029 	b	8638 <store_current_task+0x110>
    8590:	e30c3008 	movw	r3, #49160	; 0xc008
    8594:	e3403000 	movt	r3, #0
    8598:	e5933000 	ldr	r3, [r3]
    859c:	e30c2018 	movw	r2, #49176	; 0xc018
    85a0:	e3402000 	movt	r2, #0
    85a4:	e0633183 	rsb	r3, r3, r3, lsl #3
    85a8:	e1a03203 	lsl	r3, r3, #4
    85ac:	e7d23003 	ldrb	r3, [r2, r3]
    85b0:	e6ef3073 	uxtb	r3, r3
    85b4:	e3530002 	cmp	r3, #2
    85b8:	1a00001e 	bne	8638 <store_current_task+0x110>
    85bc:	e30c2008 	movw	r2, #49160	; 0xc008
    85c0:	e3402000 	movt	r2, #0
    85c4:	e592e000 	ldr	lr, [r2]
    85c8:	e30c3010 	movw	r3, #49168	; 0xc010
    85cc:	e3403000 	movt	r3, #0
    85d0:	e593c000 	ldr	ip, [r3]
    85d4:	e3a01001 	mov	r1, #1
    85d8:	e1ccce11 	bic	ip, ip, r1, lsl lr
    85dc:	e583c000 	str	ip, [r3]
    85e0:	e592e000 	ldr	lr, [r2]
    85e4:	e30c3fa0 	movw	r3, #53152	; 0xcfa0
    85e8:	e3403000 	movt	r3, #0
    85ec:	e593c000 	ldr	ip, [r3]
    85f0:	e18c1e11 	orr	r1, ip, r1, lsl lr
    85f4:	e5831000 	str	r1, [r3]
    85f8:	e5921000 	ldr	r1, [r2]
    85fc:	e30c3018 	movw	r3, #49176	; 0xc018
    8600:	e3403000 	movt	r3, #0
    8604:	e0611181 	rsb	r1, r1, r1, lsl #3
    8608:	e0831201 	add	r1, r3, r1, lsl #4
    860c:	e591e008 	ldr	lr, [r1, #8]
    8610:	e592c000 	ldr	ip, [r2]
    8614:	e1a0118c 	lsl	r1, ip, #3
    8618:	e06c2001 	rsb	r2, ip, r1
    861c:	e0832202 	add	r2, r3, r2, lsl #4
    8620:	e2822008 	add	r2, r2, #8
    8624:	e5922004 	ldr	r2, [r2, #4]
    8628:	e082200e 	add	r2, r2, lr
    862c:	e06c1001 	rsb	r1, ip, r1
    8630:	e0833201 	add	r3, r3, r1, lsl #4
    8634:	e583200c 	str	r2, [r3, #12]
    8638:	e30c2008 	movw	r2, #49160	; 0xc008
    863c:	e3402000 	movt	r2, #0
    8640:	e5921000 	ldr	r1, [r2]
    8644:	e590c04c 	ldr	ip, [r0, #76]	; 0x4c
    8648:	e30c3018 	movw	r3, #49176	; 0xc018
    864c:	e3403000 	movt	r3, #0
    8650:	e0611181 	rsb	r1, r1, r1, lsl #3
    8654:	e0831201 	add	r1, r3, r1, lsl #4
    8658:	e581c020 	str	ip, [r1, #32]
    865c:	e5921000 	ldr	r1, [r2]
    8660:	e590c048 	ldr	ip, [r0, #72]	; 0x48
    8664:	e0611181 	rsb	r1, r1, r1, lsl #3
    8668:	e0831201 	add	r1, r3, r1, lsl #4
    866c:	e581c024 	str	ip, [r1, #36]	; 0x24
    8670:	e5921000 	ldr	r1, [r2]
    8674:	e590c044 	ldr	ip, [r0, #68]	; 0x44
    8678:	e0611181 	rsb	r1, r1, r1, lsl #3
    867c:	e0831201 	add	r1, r3, r1, lsl #4
    8680:	e581c028 	str	ip, [r1, #40]	; 0x28
    8684:	e5921000 	ldr	r1, [r2]
    8688:	e590c040 	ldr	ip, [r0, #64]	; 0x40
    868c:	e0611181 	rsb	r1, r1, r1, lsl #3
    8690:	e0831201 	add	r1, r3, r1, lsl #4
    8694:	e581c02c 	str	ip, [r1, #44]	; 0x2c
    8698:	e5921000 	ldr	r1, [r2]
    869c:	e590c03c 	ldr	ip, [r0, #60]	; 0x3c
    86a0:	e0611181 	rsb	r1, r1, r1, lsl #3
    86a4:	e0831201 	add	r1, r3, r1, lsl #4
    86a8:	e581c030 	str	ip, [r1, #48]	; 0x30
    86ac:	e5921000 	ldr	r1, [r2]
    86b0:	e590c038 	ldr	ip, [r0, #56]	; 0x38
    86b4:	e0611181 	rsb	r1, r1, r1, lsl #3
    86b8:	e0831201 	add	r1, r3, r1, lsl #4
    86bc:	e581c034 	str	ip, [r1, #52]	; 0x34
    86c0:	e5921000 	ldr	r1, [r2]
    86c4:	e590c034 	ldr	ip, [r0, #52]	; 0x34
    86c8:	e0611181 	rsb	r1, r1, r1, lsl #3
    86cc:	e0831201 	add	r1, r3, r1, lsl #4
    86d0:	e581c038 	str	ip, [r1, #56]	; 0x38
    86d4:	e5921000 	ldr	r1, [r2]
    86d8:	e590c030 	ldr	ip, [r0, #48]	; 0x30
    86dc:	e0611181 	rsb	r1, r1, r1, lsl #3
    86e0:	e0831201 	add	r1, r3, r1, lsl #4
    86e4:	e581c03c 	str	ip, [r1, #60]	; 0x3c
    86e8:	e5921000 	ldr	r1, [r2]
    86ec:	e590c02c 	ldr	ip, [r0, #44]	; 0x2c
    86f0:	e0611181 	rsb	r1, r1, r1, lsl #3
    86f4:	e0831201 	add	r1, r3, r1, lsl #4
    86f8:	e581c040 	str	ip, [r1, #64]	; 0x40
    86fc:	e5921000 	ldr	r1, [r2]
    8700:	e590c028 	ldr	ip, [r0, #40]	; 0x28
    8704:	e0611181 	rsb	r1, r1, r1, lsl #3
    8708:	e0831201 	add	r1, r3, r1, lsl #4
    870c:	e581c044 	str	ip, [r1, #68]	; 0x44
    8710:	e5921000 	ldr	r1, [r2]
    8714:	e590c024 	ldr	ip, [r0, #36]	; 0x24
    8718:	e0611181 	rsb	r1, r1, r1, lsl #3
    871c:	e0831201 	add	r1, r3, r1, lsl #4
    8720:	e581c048 	str	ip, [r1, #72]	; 0x48
    8724:	e5921000 	ldr	r1, [r2]
    8728:	e590c020 	ldr	ip, [r0, #32]
    872c:	e0611181 	rsb	r1, r1, r1, lsl #3
    8730:	e0831201 	add	r1, r3, r1, lsl #4
    8734:	e581c04c 	str	ip, [r1, #76]	; 0x4c
    8738:	e5921000 	ldr	r1, [r2]
    873c:	e590c01c 	ldr	ip, [r0, #28]
    8740:	e0611181 	rsb	r1, r1, r1, lsl #3
    8744:	e0831201 	add	r1, r3, r1, lsl #4
    8748:	e581c050 	str	ip, [r1, #80]	; 0x50
    874c:	e5921000 	ldr	r1, [r2]
    8750:	e590c018 	ldr	ip, [r0, #24]
    8754:	e0611181 	rsb	r1, r1, r1, lsl #3
    8758:	e0831201 	add	r1, r3, r1, lsl #4
    875c:	e581c054 	str	ip, [r1, #84]	; 0x54
    8760:	e5921000 	ldr	r1, [r2]
    8764:	e590c014 	ldr	ip, [r0, #20]
    8768:	e0611181 	rsb	r1, r1, r1, lsl #3
    876c:	e0831201 	add	r1, r3, r1, lsl #4
    8770:	e581c058 	str	ip, [r1, #88]	; 0x58
    8774:	e5921000 	ldr	r1, [r2]
    8778:	e590c010 	ldr	ip, [r0, #16]
    877c:	e0611181 	rsb	r1, r1, r1, lsl #3
    8780:	e0831201 	add	r1, r3, r1, lsl #4
    8784:	e581c05c 	str	ip, [r1, #92]	; 0x5c
    8788:	e5921000 	ldr	r1, [r2]
    878c:	e590c00c 	ldr	ip, [r0, #12]
    8790:	e0611181 	rsb	r1, r1, r1, lsl #3
    8794:	e0831201 	add	r1, r3, r1, lsl #4
    8798:	e581c060 	str	ip, [r1, #96]	; 0x60
    879c:	e5921000 	ldr	r1, [r2]
    87a0:	e590c004 	ldr	ip, [r0, #4]
    87a4:	e0611181 	rsb	r1, r1, r1, lsl #3
    87a8:	e0831201 	add	r1, r3, r1, lsl #4
    87ac:	e581c068 	str	ip, [r1, #104]	; 0x68
    87b0:	e5922000 	ldr	r2, [r2]
    87b4:	e5901000 	ldr	r1, [r0]
    87b8:	e0622182 	rsb	r2, r2, r2, lsl #3
    87bc:	e0833202 	add	r3, r3, r2, lsl #4
    87c0:	e583106c 	str	r1, [r3, #108]	; 0x6c
    87c4:	e49df004 	pop	{pc}		; (ldr pc, [sp], #4)

000087c8 <restore_next_task>:
    87c8:	e30c3008 	movw	r3, #49160	; 0xc008
    87cc:	e3403000 	movt	r3, #0
    87d0:	e5933000 	ldr	r3, [r3]
    87d4:	e30c2018 	movw	r2, #49176	; 0xc018
    87d8:	e3402000 	movt	r2, #0
    87dc:	e0633183 	rsb	r3, r3, r3, lsl #3
    87e0:	e1a03203 	lsl	r3, r3, #4
    87e4:	e7d23003 	ldrb	r3, [r2, r3]
    87e8:	e6ef3073 	uxtb	r3, r3
    87ec:	e3530001 	cmp	r3, #1
    87f0:	1a000008 	bne	8818 <restore_next_task+0x50>
    87f4:	e30c3008 	movw	r3, #49160	; 0xc008
    87f8:	e3403000 	movt	r3, #0
    87fc:	e5933000 	ldr	r3, [r3]
    8800:	e30c2018 	movw	r2, #49176	; 0xc018
    8804:	e3402000 	movt	r2, #0
    8808:	e0633183 	rsb	r3, r3, r3, lsl #3
    880c:	e1a03203 	lsl	r3, r3, #4
    8810:	e3a01000 	mov	r1, #0
    8814:	e7c21003 	strb	r1, [r2, r3]
    8818:	e30c2008 	movw	r2, #49160	; 0xc008
    881c:	e3402000 	movt	r2, #0
    8820:	e5921000 	ldr	r1, [r2]
    8824:	e30c3018 	movw	r3, #49176	; 0xc018
    8828:	e3403000 	movt	r3, #0
    882c:	e0611181 	rsb	r1, r1, r1, lsl #3
    8830:	e0831201 	add	r1, r3, r1, lsl #4
    8834:	e2811020 	add	r1, r1, #32
    8838:	e5911004 	ldr	r1, [r1, #4]
    883c:	e5801048 	str	r1, [r0, #72]	; 0x48
    8840:	e5921000 	ldr	r1, [r2]
    8844:	e0611181 	rsb	r1, r1, r1, lsl #3
    8848:	e0831201 	add	r1, r3, r1, lsl #4
    884c:	e5911028 	ldr	r1, [r1, #40]	; 0x28
    8850:	e5801044 	str	r1, [r0, #68]	; 0x44
    8854:	e5921000 	ldr	r1, [r2]
    8858:	e0611181 	rsb	r1, r1, r1, lsl #3
    885c:	e0831201 	add	r1, r3, r1, lsl #4
    8860:	e2811028 	add	r1, r1, #40	; 0x28
    8864:	e5911004 	ldr	r1, [r1, #4]
    8868:	e5801040 	str	r1, [r0, #64]	; 0x40
    886c:	e5921000 	ldr	r1, [r2]
    8870:	e0611181 	rsb	r1, r1, r1, lsl #3
    8874:	e0831201 	add	r1, r3, r1, lsl #4
    8878:	e5911030 	ldr	r1, [r1, #48]	; 0x30
    887c:	e580103c 	str	r1, [r0, #60]	; 0x3c
    8880:	e5921000 	ldr	r1, [r2]
    8884:	e0611181 	rsb	r1, r1, r1, lsl #3
    8888:	e0831201 	add	r1, r3, r1, lsl #4
    888c:	e2811030 	add	r1, r1, #48	; 0x30
    8890:	e5911004 	ldr	r1, [r1, #4]
    8894:	e5801038 	str	r1, [r0, #56]	; 0x38
    8898:	e5921000 	ldr	r1, [r2]
    889c:	e0611181 	rsb	r1, r1, r1, lsl #3
    88a0:	e0831201 	add	r1, r3, r1, lsl #4
    88a4:	e5911038 	ldr	r1, [r1, #56]	; 0x38
    88a8:	e5801034 	str	r1, [r0, #52]	; 0x34
    88ac:	e5921000 	ldr	r1, [r2]
    88b0:	e0611181 	rsb	r1, r1, r1, lsl #3
    88b4:	e0831201 	add	r1, r3, r1, lsl #4
    88b8:	e2811038 	add	r1, r1, #56	; 0x38
    88bc:	e5911004 	ldr	r1, [r1, #4]
    88c0:	e5801030 	str	r1, [r0, #48]	; 0x30
    88c4:	e5921000 	ldr	r1, [r2]
    88c8:	e0611181 	rsb	r1, r1, r1, lsl #3
    88cc:	e0831201 	add	r1, r3, r1, lsl #4
    88d0:	e5911040 	ldr	r1, [r1, #64]	; 0x40
    88d4:	e580102c 	str	r1, [r0, #44]	; 0x2c
    88d8:	e5921000 	ldr	r1, [r2]
    88dc:	e0611181 	rsb	r1, r1, r1, lsl #3
    88e0:	e0831201 	add	r1, r3, r1, lsl #4
    88e4:	e2811040 	add	r1, r1, #64	; 0x40
    88e8:	e5911004 	ldr	r1, [r1, #4]
    88ec:	e5801028 	str	r1, [r0, #40]	; 0x28
    88f0:	e5921000 	ldr	r1, [r2]
    88f4:	e0611181 	rsb	r1, r1, r1, lsl #3
    88f8:	e0831201 	add	r1, r3, r1, lsl #4
    88fc:	e5911048 	ldr	r1, [r1, #72]	; 0x48
    8900:	e5801024 	str	r1, [r0, #36]	; 0x24
    8904:	e5921000 	ldr	r1, [r2]
    8908:	e0611181 	rsb	r1, r1, r1, lsl #3
    890c:	e0831201 	add	r1, r3, r1, lsl #4
    8910:	e2811048 	add	r1, r1, #72	; 0x48
    8914:	e5911004 	ldr	r1, [r1, #4]
    8918:	e5801020 	str	r1, [r0, #32]
    891c:	e5921000 	ldr	r1, [r2]
    8920:	e0611181 	rsb	r1, r1, r1, lsl #3
    8924:	e0831201 	add	r1, r3, r1, lsl #4
    8928:	e5911050 	ldr	r1, [r1, #80]	; 0x50
    892c:	e580101c 	str	r1, [r0, #28]
    8930:	e5921000 	ldr	r1, [r2]
    8934:	e0611181 	rsb	r1, r1, r1, lsl #3
    8938:	e0831201 	add	r1, r3, r1, lsl #4
    893c:	e2811050 	add	r1, r1, #80	; 0x50
    8940:	e5911004 	ldr	r1, [r1, #4]
    8944:	e5801018 	str	r1, [r0, #24]
    8948:	e5921000 	ldr	r1, [r2]
    894c:	e0611181 	rsb	r1, r1, r1, lsl #3
    8950:	e0831201 	add	r1, r3, r1, lsl #4
    8954:	e5911058 	ldr	r1, [r1, #88]	; 0x58
    8958:	e5801014 	str	r1, [r0, #20]
    895c:	e5921000 	ldr	r1, [r2]
    8960:	e0611181 	rsb	r1, r1, r1, lsl #3
    8964:	e0831201 	add	r1, r3, r1, lsl #4
    8968:	e2811058 	add	r1, r1, #88	; 0x58
    896c:	e5911004 	ldr	r1, [r1, #4]
    8970:	e5801010 	str	r1, [r0, #16]
    8974:	e5921000 	ldr	r1, [r2]
    8978:	e0611181 	rsb	r1, r1, r1, lsl #3
    897c:	e0831201 	add	r1, r3, r1, lsl #4
    8980:	e5911060 	ldr	r1, [r1, #96]	; 0x60
    8984:	e580100c 	str	r1, [r0, #12]
    8988:	e5921000 	ldr	r1, [r2]
    898c:	e0611181 	rsb	r1, r1, r1, lsl #3
    8990:	e0831201 	add	r1, r3, r1, lsl #4
    8994:	e5911068 	ldr	r1, [r1, #104]	; 0x68
    8998:	e5801004 	str	r1, [r0, #4]
    899c:	e5922000 	ldr	r2, [r2]
    89a0:	e0622182 	rsb	r2, r2, r2, lsl #3
    89a4:	e0833202 	add	r3, r3, r2, lsl #4
    89a8:	e2833068 	add	r3, r3, #104	; 0x68
    89ac:	e5933004 	ldr	r3, [r3, #4]
    89b0:	e5803000 	str	r3, [r0]
    89b4:	e12fff1e 	bx	lr

000089b8 <enforce>:
    89b8:	e30c3008 	movw	r3, #49160	; 0xc008
    89bc:	e3403000 	movt	r3, #0
    89c0:	e5933000 	ldr	r3, [r3]
    89c4:	e353001f 	cmp	r3, #31
    89c8:	012fff1e 	bxeq	lr
    89cc:	e30c1008 	movw	r1, #49160	; 0xc008
    89d0:	e3401000 	movt	r1, #0
    89d4:	e591c000 	ldr	ip, [r1]
    89d8:	e30c3018 	movw	r3, #49176	; 0xc018
    89dc:	e3403000 	movt	r3, #0
    89e0:	e1a0218c 	lsl	r2, ip, #3
    89e4:	e06c0002 	rsb	r0, ip, r2
    89e8:	e0830200 	add	r0, r3, r0, lsl #4
    89ec:	e5900018 	ldr	r0, [r0, #24]
    89f0:	e2800001 	add	r0, r0, #1
    89f4:	e06c2002 	rsb	r2, ip, r2
    89f8:	e0832202 	add	r2, r3, r2, lsl #4
    89fc:	e5820018 	str	r0, [r2, #24]
    8a00:	e5912000 	ldr	r2, [r1]
    8a04:	e0622182 	rsb	r2, r2, r2, lsl #3
    8a08:	e0832202 	add	r2, r3, r2, lsl #4
    8a0c:	e5920018 	ldr	r0, [r2, #24]
    8a10:	e5912000 	ldr	r2, [r1]
    8a14:	e0622182 	rsb	r2, r2, r2, lsl #3
    8a18:	e0833202 	add	r3, r3, r2, lsl #4
    8a1c:	e5933004 	ldr	r3, [r3, #4]
    8a20:	e1500003 	cmp	r0, r3
    8a24:	9a000006 	bls	8a44 <enforce+0x8c>
    8a28:	e5913000 	ldr	r3, [r1]
    8a2c:	e30c2018 	movw	r2, #49176	; 0xc018
    8a30:	e3402000 	movt	r2, #0
    8a34:	e0633183 	rsb	r3, r3, r3, lsl #3
    8a38:	e1a03203 	lsl	r3, r3, #4
    8a3c:	e3a01002 	mov	r1, #2
    8a40:	e7c21003 	strb	r1, [r2, r3]
    8a44:	e30c3008 	movw	r3, #49160	; 0xc008
    8a48:	e3403000 	movt	r3, #0
    8a4c:	e5932000 	ldr	r2, [r3]
    8a50:	e30c3018 	movw	r3, #49176	; 0xc018
    8a54:	e3403000 	movt	r3, #0
    8a58:	e0622182 	rsb	r2, r2, r2, lsl #3
    8a5c:	e0833202 	add	r3, r3, r2, lsl #4
    8a60:	e2833018 	add	r3, r3, #24
    8a64:	e5933004 	ldr	r3, [r3, #4]
    8a68:	e3530000 	cmp	r3, #0
    8a6c:	012fff1e 	bxeq	lr
    8a70:	e30c3008 	movw	r3, #49160	; 0xc008
    8a74:	e3403000 	movt	r3, #0
    8a78:	e5930000 	ldr	r0, [r3]
    8a7c:	e30c3018 	movw	r3, #49176	; 0xc018
    8a80:	e3403000 	movt	r3, #0
    8a84:	e1a01180 	lsl	r1, r0, #3
    8a88:	e0602001 	rsb	r2, r0, r1
    8a8c:	e0832202 	add	r2, r3, r2, lsl #4
    8a90:	e2822018 	add	r2, r2, #24
    8a94:	e5922004 	ldr	r2, [r2, #4]
    8a98:	e2422001 	sub	r2, r2, #1
    8a9c:	e0601001 	rsb	r1, r0, r1
    8aa0:	e0833201 	add	r3, r3, r1, lsl #4
    8aa4:	e583201c 	str	r2, [r3, #28]
    8aa8:	e12fff1e 	bx	lr

00008aac <wakeup>:
    8aac:	e92d40f0 	push	{r4, r5, r6, r7, lr}
    8ab0:	e3a03000 	mov	r3, #0
    8ab4:	e3a0c001 	mov	ip, #1
    8ab8:	e30c0fa0 	movw	r0, #53152	; 0xcfa0
    8abc:	e3400000 	movt	r0, #0
    8ac0:	e30ce018 	movw	lr, #49176	; 0xc018
    8ac4:	e340e000 	movt	lr, #0
    8ac8:	e30c5014 	movw	r5, #49172	; 0xc014
    8acc:	e3405000 	movt	r5, #0
    8ad0:	e1a06003 	mov	r6, r3
    8ad4:	e30c4010 	movw	r4, #49168	; 0xc010
    8ad8:	e3404000 	movt	r4, #0
    8adc:	e1a0131c 	lsl	r1, ip, r3
    8ae0:	e5902000 	ldr	r2, [r0]
    8ae4:	e1110002 	tst	r1, r2
    8ae8:	0a00000f 	beq	8b2c <wakeup+0x80>
    8aec:	e0632183 	rsb	r2, r3, r3, lsl #3
    8af0:	e08e2202 	add	r2, lr, r2, lsl #4
    8af4:	e592700c 	ldr	r7, [r2, #12]
    8af8:	e5952000 	ldr	r2, [r5]
    8afc:	e1570002 	cmp	r7, r2
    8b00:	2a000009 	bcs	8b2c <wakeup+0x80>
    8b04:	e0632183 	rsb	r2, r3, r3, lsl #3
    8b08:	e08e7202 	add	r7, lr, r2, lsl #4
    8b0c:	e7cec202 	strb	ip, [lr, r2, lsl #4]
    8b10:	e5876018 	str	r6, [r7, #24]
    8b14:	e5902000 	ldr	r2, [r0]
    8b18:	e1c22001 	bic	r2, r2, r1
    8b1c:	e5802000 	str	r2, [r0]
    8b20:	e5942000 	ldr	r2, [r4]
    8b24:	e1811002 	orr	r1, r1, r2
    8b28:	e5841000 	str	r1, [r4]
    8b2c:	e2833001 	add	r3, r3, #1
    8b30:	e3530020 	cmp	r3, #32
    8b34:	1affffe8 	bne	8adc <wakeup+0x30>
    8b38:	e8bd80f0 	pop	{r4, r5, r6, r7, pc}

00008b3c <irq_c_handler>:
    8b3c:	e92d4010 	push	{r4, lr}
    8b40:	e1a04000 	mov	r4, r0
    8b44:	eb000147 	bl	9068 <timer_is_pending>
    8b48:	e3500000 	cmp	r0, #0
    8b4c:	0a000000 	beq	8b54 <irq_c_handler+0x18>
    8b50:	eb000149 	bl	907c <timer_clear_pending>
    8b54:	e30c3014 	movw	r3, #49172	; 0xc014
    8b58:	e3403000 	movt	r3, #0
    8b5c:	e5932000 	ldr	r2, [r3]
    8b60:	e2822001 	add	r2, r2, #1
    8b64:	e5832000 	str	r2, [r3]
    8b68:	ebffff92 	bl	89b8 <enforce>
    8b6c:	e1a00004 	mov	r0, r4
    8b70:	ebfffe6c 	bl	8528 <store_current_task>
    8b74:	ebffffcc 	bl	8aac <wakeup>
    8b78:	ebfffe50 	bl	84c0 <get_top_priority>
    8b7c:	e30c3008 	movw	r3, #49160	; 0xc008
    8b80:	e3403000 	movt	r3, #0
    8b84:	e5830000 	str	r0, [r3]
    8b88:	e1a00004 	mov	r0, r4
    8b8c:	ebffff0d 	bl	87c8 <restore_next_task>
    8b90:	e8bd8010 	pop	{r4, pc}

00008b94 <swi_c_handler>:
    8b94:	e92d4030 	push	{r4, r5, lr}
    8b98:	e24dd00c 	sub	sp, sp, #12
    8b9c:	e1a04000 	mov	r4, r0
    8ba0:	e1a05001 	mov	r5, r1
    8ba4:	eb0003d4 	bl	9afc <enable_interrupts>
    8ba8:	e3540013 	cmp	r4, #19
    8bac:	979ff104 	ldrls	pc, [pc, r4, lsl #2]
    8bb0:	ea000062 	b	8d40 <swi_c_handler+0x1ac>
    8bb4:	00008c04 	andeq	r8, r0, r4, lsl #24
    8bb8:	00008c14 	andeq	r8, r0, r4, lsl ip
    8bbc:	00008c2c 	andeq	r8, r0, ip, lsr #24
    8bc0:	00008c3c 	andeq	r8, r0, ip, lsr ip
    8bc4:	00008c50 	andeq	r8, r0, r0, asr ip
    8bc8:	00008c60 	andeq	r8, r0, r0, ror #24
    8bcc:	00008c78 	andeq	r8, r0, r8, ror ip
    8bd0:	00008c90 	muleq	r0, r0, ip
    8bd4:	00008d40 	andeq	r8, r0, r0, asr #26
    8bd8:	00008d40 	andeq	r8, r0, r0, asr #26
    8bdc:	00008ca0 	andeq	r8, r0, r0, lsr #25
    8be0:	00008cb4 			; <UNDEFINED> instruction: 0x00008cb4
    8be4:	00008cd8 	ldrdeq	r8, [r0], -r8	; <UNPREDICTABLE>
    8be8:	00008cec 	andeq	r8, r0, ip, ror #25
    8bec:	00008cfc 	strdeq	r8, [r0], -ip
    8bf0:	00008d0c 	andeq	r8, r0, ip, lsl #26
    8bf4:	00008d18 	andeq	r8, r0, r8, lsl sp
    8bf8:	00008d24 	andeq	r8, r0, r4, lsr #26
    8bfc:	00008d40 	andeq	r8, r0, r0, asr #26
    8c00:	00008d30 	andeq	r8, r0, r0, lsr sp
    8c04:	e5950000 	ldr	r0, [r5]
    8c08:	eb000391 	bl	9a54 <syscall_sbrk>
    8c0c:	e1a04000 	mov	r4, r0
    8c10:	ea00004b 	b	8d44 <swi_c_handler+0x1b0>
    8c14:	e5950000 	ldr	r0, [r5]
    8c18:	e5951004 	ldr	r1, [r5, #4]
    8c1c:	e5952008 	ldr	r2, [r5, #8]
    8c20:	eb000159 	bl	918c <syscall_write>
    8c24:	e1a04000 	mov	r4, r0
    8c28:	ea000045 	b	8d44 <swi_c_handler+0x1b0>
    8c2c:	e5950000 	ldr	r0, [r5]
    8c30:	eb00039d 	bl	9aac <syscall_close>
    8c34:	e1a04000 	mov	r4, r0
    8c38:	ea000041 	b	8d44 <swi_c_handler+0x1b0>
    8c3c:	e5950000 	ldr	r0, [r5]
    8c40:	e5951004 	ldr	r1, [r5, #4]
    8c44:	eb00039a 	bl	9ab4 <syscall_fstat>
    8c48:	e1a04000 	mov	r4, r0
    8c4c:	ea00003c 	b	8d44 <swi_c_handler+0x1b0>
    8c50:	e5950000 	ldr	r0, [r5]
    8c54:	eb000398 	bl	9abc <syscall_isatty>
    8c58:	e1a04000 	mov	r4, r0
    8c5c:	ea000038 	b	8d44 <swi_c_handler+0x1b0>
    8c60:	e5950000 	ldr	r0, [r5]
    8c64:	e5951004 	ldr	r1, [r5, #4]
    8c68:	e5952008 	ldr	r2, [r5, #8]
    8c6c:	eb000394 	bl	9ac4 <syscall_lseek>
    8c70:	e1a04000 	mov	r4, r0
    8c74:	ea000032 	b	8d44 <swi_c_handler+0x1b0>
    8c78:	e5950000 	ldr	r0, [r5]
    8c7c:	e5951004 	ldr	r1, [r5, #4]
    8c80:	e5952008 	ldr	r2, [r5, #8]
    8c84:	eb000152 	bl	91d4 <syscall_read>
    8c88:	e1a04000 	mov	r4, r0
    8c8c:	ea00002c 	b	8d44 <swi_c_handler+0x1b0>
    8c90:	e5950000 	ldr	r0, [r5]
    8c94:	eb000134 	bl	916c <syscall_exit>
    8c98:	e3a04000 	mov	r4, #0
    8c9c:	ea000028 	b	8d44 <swi_c_handler+0x1b0>
    8ca0:	e5950000 	ldr	r0, [r5]
    8ca4:	e5951004 	ldr	r1, [r5, #4]
    8ca8:	eb0001af 	bl	936c <thread_init>
    8cac:	e1a04000 	mov	r4, r0
    8cb0:	ea000023 	b	8d44 <swi_c_handler+0x1b0>
    8cb4:	e5950000 	ldr	r0, [r5]
    8cb8:	e5951004 	ldr	r1, [r5, #4]
    8cbc:	e5952008 	ldr	r2, [r5, #8]
    8cc0:	e595300c 	ldr	r3, [r5, #12]
    8cc4:	e595c040 	ldr	ip, [r5, #64]	; 0x40
    8cc8:	e58dc000 	str	ip, [sp]
    8ccc:	eb000173 	bl	92a0 <thread_create>
    8cd0:	e1a04000 	mov	r4, r0
    8cd4:	ea00001a 	b	8d44 <swi_c_handler+0x1b0>
    8cd8:	e5950000 	ldr	r0, [r5]
    8cdc:	e5951004 	ldr	r1, [r5, #4]
    8ce0:	eb0001bc 	bl	93d8 <mutex_init>
    8ce4:	e1a04000 	mov	r4, r0
    8ce8:	ea000015 	b	8d44 <swi_c_handler+0x1b0>
    8cec:	e5950000 	ldr	r0, [r5]
    8cf0:	eb0001f0 	bl	94b8 <mutex_lock>
    8cf4:	e3a04000 	mov	r4, #0
    8cf8:	ea000011 	b	8d44 <swi_c_handler+0x1b0>
    8cfc:	e5950000 	ldr	r0, [r5]
    8d00:	eb000230 	bl	95c8 <mutex_unlock>
    8d04:	e3a04000 	mov	r4, #0
    8d08:	ea00000d 	b	8d44 <swi_c_handler+0x1b0>
    8d0c:	eb000324 	bl	99a4 <wait_until_next_period>
    8d10:	e3a04000 	mov	r4, #0
    8d14:	ea00000a 	b	8d44 <swi_c_handler+0x1b0>
    8d18:	eb000335 	bl	99f4 <get_time>
    8d1c:	e1a04000 	mov	r4, r0
    8d20:	ea000007 	b	8d44 <swi_c_handler+0x1b0>
    8d24:	eb000239 	bl	9610 <scheduler_start>
    8d28:	e1a04000 	mov	r4, r0
    8d2c:	ea000004 	b	8d44 <swi_c_handler+0x1b0>
    8d30:	e5950000 	ldr	r0, [r5]
    8d34:	eb000332 	bl	9a04 <spin_wait>
    8d38:	e3a04000 	mov	r4, #0
    8d3c:	ea000000 	b	8d44 <swi_c_handler+0x1b0>
    8d40:	e3a04000 	mov	r4, #0
    8d44:	eb000367 	bl	9ae8 <disable_interrupts>
    8d48:	e1a00004 	mov	r0, r4
    8d4c:	e28dd00c 	add	sp, sp, #12
    8d50:	e8bd8030 	pop	{r4, r5, pc}

00008d54 <printnumk>:
    8d54:	e92d47f0 	push	{r4, r5, r6, r7, r8, r9, sl, lr}
    8d58:	e24dd008 	sub	sp, sp, #8
    8d5c:	e1a06002 	mov	r6, r2
    8d60:	e1a07003 	mov	r7, r3
    8d64:	e3500008 	cmp	r0, #8
    8d68:	0a000004 	beq	8d80 <printnumk+0x2c>
    8d6c:	e30b8020 	movw	r8, #45088	; 0xb020
    8d70:	e3408000 	movt	r8, #0
    8d74:	e3500010 	cmp	r0, #16
    8d78:	13a08000 	movne	r8, #0
    8d7c:	ea000001 	b	8d88 <printnumk+0x34>
    8d80:	e30b801c 	movw	r8, #45084	; 0xb01c
    8d84:	e3408000 	movt	r8, #0
    8d88:	e28d4007 	add	r4, sp, #7
    8d8c:	e1a05000 	mov	r5, r0
    8d90:	e3a09000 	mov	r9, #0
    8d94:	e30ba008 	movw	sl, #45064	; 0xb008
    8d98:	e340a000 	movt	sl, #0
    8d9c:	e1a00006 	mov	r0, r6
    8da0:	e1a01007 	mov	r1, r7
    8da4:	e1a02005 	mov	r2, r5
    8da8:	e1a03009 	mov	r3, r9
    8dac:	eb000646 	bl	a6cc <__aeabi_uldivmod>
    8db0:	e7da3002 	ldrb	r3, [sl, r2]
    8db4:	e4443001 	strb	r3, [r4], #-1
    8db8:	e1a00006 	mov	r0, r6
    8dbc:	e1a01007 	mov	r1, r7
    8dc0:	e1a02005 	mov	r2, r5
    8dc4:	e1a03009 	mov	r3, r9
    8dc8:	eb00063f 	bl	a6cc <__aeabi_uldivmod>
    8dcc:	e1a06000 	mov	r6, r0
    8dd0:	e1a07001 	mov	r7, r1
    8dd4:	e1963007 	orrs	r3, r6, r7
    8dd8:	1affffef 	bne	8d9c <printnumk+0x48>
    8ddc:	e3580000 	cmp	r8, #0
    8de0:	0a000002 	beq	8df0 <printnumk+0x9c>
    8de4:	e5d80000 	ldrb	r0, [r8]
    8de8:	e3500000 	cmp	r0, #0
    8dec:	1a000004 	bne	8e04 <printnumk+0xb0>
    8df0:	e2844001 	add	r4, r4, #1
    8df4:	e28d3008 	add	r3, sp, #8
    8df8:	e1540003 	cmp	r4, r3
    8dfc:	1a000005 	bne	8e18 <printnumk+0xc4>
    8e00:	ea000009 	b	8e2c <printnumk+0xd8>
    8e04:	eb0000c5 	bl	9120 <uart_put_byte>
    8e08:	e5f80001 	ldrb	r0, [r8, #1]!
    8e0c:	e3500000 	cmp	r0, #0
    8e10:	1afffffb 	bne	8e04 <printnumk+0xb0>
    8e14:	eafffff5 	b	8df0 <printnumk+0x9c>
    8e18:	e4d40001 	ldrb	r0, [r4], #1
    8e1c:	eb0000bf 	bl	9120 <uart_put_byte>
    8e20:	e28d3008 	add	r3, sp, #8
    8e24:	e1540003 	cmp	r4, r3
    8e28:	1afffffa 	bne	8e18 <printnumk+0xc4>
    8e2c:	e28dd008 	add	sp, sp, #8
    8e30:	e8bd87f0 	pop	{r4, r5, r6, r7, r8, r9, sl, pc}

00008e34 <printk>:
    8e34:	e92d000f 	push	{r0, r1, r2, r3}
    8e38:	e92d41f0 	push	{r4, r5, r6, r7, r8, lr}
    8e3c:	e24dd008 	sub	sp, sp, #8
    8e40:	e59d4020 	ldr	r4, [sp, #32]
    8e44:	e28d3024 	add	r3, sp, #36	; 0x24
    8e48:	e58d3004 	str	r3, [sp, #4]
    8e4c:	e3a06000 	mov	r6, #0
    8e50:	e3a08008 	mov	r8, #8
    8e54:	e3a07010 	mov	r7, #16
    8e58:	ea00005c 	b	8fd0 <printk+0x19c>
    8e5c:	e3500025 	cmp	r0, #37	; 0x25
    8e60:	0a000002 	beq	8e70 <printk+0x3c>
    8e64:	e2844001 	add	r4, r4, #1
    8e68:	eb0000ac 	bl	9120 <uart_put_byte>
    8e6c:	ea000057 	b	8fd0 <printk+0x19c>
    8e70:	e5d43001 	ldrb	r3, [r4, #1]
    8e74:	e353006f 	cmp	r3, #111	; 0x6f
    8e78:	0a00002c 	beq	8f30 <printk+0xfc>
    8e7c:	8a000006 	bhi	8e9c <printk+0x68>
    8e80:	e3530063 	cmp	r3, #99	; 0x63
    8e84:	0a000045 	beq	8fa0 <printk+0x16c>
    8e88:	e3530064 	cmp	r3, #100	; 0x64
    8e8c:	0a00000d 	beq	8ec8 <printk+0x94>
    8e90:	e3530025 	cmp	r3, #37	; 0x25
    8e94:	1a00004a 	bne	8fc4 <printk+0x190>
    8e98:	ea000046 	b	8fb8 <printk+0x184>
    8e9c:	e3530073 	cmp	r3, #115	; 0x73
    8ea0:	0a000032 	beq	8f70 <printk+0x13c>
    8ea4:	8a000002 	bhi	8eb4 <printk+0x80>
    8ea8:	e3530070 	cmp	r3, #112	; 0x70
    8eac:	0a000027 	beq	8f50 <printk+0x11c>
    8eb0:	ea000043 	b	8fc4 <printk+0x190>
    8eb4:	e3530075 	cmp	r3, #117	; 0x75
    8eb8:	0a000014 	beq	8f10 <printk+0xdc>
    8ebc:	e3530078 	cmp	r3, #120	; 0x78
    8ec0:	0a000022 	beq	8f50 <printk+0x11c>
    8ec4:	ea00003e 	b	8fc4 <printk+0x190>
    8ec8:	e59d3004 	ldr	r3, [sp, #4]
    8ecc:	e2832004 	add	r2, r3, #4
    8ed0:	e58d2004 	str	r2, [sp, #4]
    8ed4:	e5935000 	ldr	r5, [r3]
    8ed8:	e3550000 	cmp	r5, #0
    8edc:	aa000006 	bge	8efc <printk+0xc8>
    8ee0:	e3a0002d 	mov	r0, #45	; 0x2d
    8ee4:	eb00008d 	bl	9120 <uart_put_byte>
    8ee8:	e2652000 	rsb	r2, r5, #0
    8eec:	e3a0000a 	mov	r0, #10
    8ef0:	e1a03fc2 	asr	r3, r2, #31
    8ef4:	ebffff96 	bl	8d54 <printnumk>
    8ef8:	ea000033 	b	8fcc <printk+0x198>
    8efc:	e3a0000a 	mov	r0, #10
    8f00:	e1a02005 	mov	r2, r5
    8f04:	e1a03fc5 	asr	r3, r5, #31
    8f08:	ebffff91 	bl	8d54 <printnumk>
    8f0c:	ea00002e 	b	8fcc <printk+0x198>
    8f10:	e59d3004 	ldr	r3, [sp, #4]
    8f14:	e2832004 	add	r2, r3, #4
    8f18:	e58d2004 	str	r2, [sp, #4]
    8f1c:	e3a0000a 	mov	r0, #10
    8f20:	e5932000 	ldr	r2, [r3]
    8f24:	e1a03006 	mov	r3, r6
    8f28:	ebffff89 	bl	8d54 <printnumk>
    8f2c:	ea000026 	b	8fcc <printk+0x198>
    8f30:	e59d3004 	ldr	r3, [sp, #4]
    8f34:	e2832004 	add	r2, r3, #4
    8f38:	e58d2004 	str	r2, [sp, #4]
    8f3c:	e1a00008 	mov	r0, r8
    8f40:	e5932000 	ldr	r2, [r3]
    8f44:	e1a03006 	mov	r3, r6
    8f48:	ebffff81 	bl	8d54 <printnumk>
    8f4c:	ea00001e 	b	8fcc <printk+0x198>
    8f50:	e59d3004 	ldr	r3, [sp, #4]
    8f54:	e2832004 	add	r2, r3, #4
    8f58:	e58d2004 	str	r2, [sp, #4]
    8f5c:	e1a00007 	mov	r0, r7
    8f60:	e5932000 	ldr	r2, [r3]
    8f64:	e1a03006 	mov	r3, r6
    8f68:	ebffff79 	bl	8d54 <printnumk>
    8f6c:	ea000016 	b	8fcc <printk+0x198>
    8f70:	e59d3004 	ldr	r3, [sp, #4]
    8f74:	e2832004 	add	r2, r3, #4
    8f78:	e58d2004 	str	r2, [sp, #4]
    8f7c:	e5935000 	ldr	r5, [r3]
    8f80:	e5d50000 	ldrb	r0, [r5]
    8f84:	e3500000 	cmp	r0, #0
    8f88:	0a00000f 	beq	8fcc <printk+0x198>
    8f8c:	eb000063 	bl	9120 <uart_put_byte>
    8f90:	e5f50001 	ldrb	r0, [r5, #1]!
    8f94:	e3500000 	cmp	r0, #0
    8f98:	1afffffb 	bne	8f8c <printk+0x158>
    8f9c:	ea00000a 	b	8fcc <printk+0x198>
    8fa0:	e59d3004 	ldr	r3, [sp, #4]
    8fa4:	e2832004 	add	r2, r3, #4
    8fa8:	e58d2004 	str	r2, [sp, #4]
    8fac:	e5d30000 	ldrb	r0, [r3]
    8fb0:	eb00005a 	bl	9120 <uart_put_byte>
    8fb4:	ea000004 	b	8fcc <printk+0x198>
    8fb8:	e3a00025 	mov	r0, #37	; 0x25
    8fbc:	eb000057 	bl	9120 <uart_put_byte>
    8fc0:	ea000001 	b	8fcc <printk+0x198>
    8fc4:	e3e00000 	mvn	r0, #0
    8fc8:	ea000003 	b	8fdc <printk+0x1a8>
    8fcc:	e2844002 	add	r4, r4, #2
    8fd0:	e5d40000 	ldrb	r0, [r4]
    8fd4:	e3500000 	cmp	r0, #0
    8fd8:	1affff9f 	bne	8e5c <printk+0x28>
    8fdc:	e28dd008 	add	sp, sp, #8
    8fe0:	e8bd41f0 	pop	{r4, r5, r6, r7, r8, lr}
    8fe4:	e28dd010 	add	sp, sp, #16
    8fe8:	e12fff1e 	bx	lr

00008fec <timer_start>:
    8fec:	e3a03a0b 	mov	r3, #45056	; 0xb000
    8ff0:	e3433f00 	movt	r3, #16128	; 0x3f00
    8ff4:	e5830400 	str	r0, [r3, #1024]	; 0x400
    8ff8:	e5932408 	ldr	r2, [r3, #1032]	; 0x408
    8ffc:	e3822002 	orr	r2, r2, #2
    9000:	e5832408 	str	r2, [r3, #1032]	; 0x408
    9004:	e5932408 	ldr	r2, [r3, #1032]	; 0x408
    9008:	e3c2200c 	bic	r2, r2, #12
    900c:	e5832408 	str	r2, [r3, #1032]	; 0x408
    9010:	e5932408 	ldr	r2, [r3, #1032]	; 0x408
    9014:	e3822020 	orr	r2, r2, #32
    9018:	e5832408 	str	r2, [r3, #1032]	; 0x408
    901c:	e5932218 	ldr	r2, [r3, #536]	; 0x218
    9020:	e3822001 	orr	r2, r2, #1
    9024:	e5832218 	str	r2, [r3, #536]	; 0x218
    9028:	e5932408 	ldr	r2, [r3, #1032]	; 0x408
    902c:	e3822080 	orr	r2, r2, #128	; 0x80
    9030:	e5832408 	str	r2, [r3, #1032]	; 0x408
    9034:	e12fff1e 	bx	lr

00009038 <timer_stop>:
    9038:	e3a03a0b 	mov	r3, #45056	; 0xb000
    903c:	e3433f00 	movt	r3, #16128	; 0x3f00
    9040:	e5932224 	ldr	r2, [r3, #548]	; 0x224
    9044:	e3822001 	orr	r2, r2, #1
    9048:	e5832224 	str	r2, [r3, #548]	; 0x224
    904c:	e5932408 	ldr	r2, [r3, #1032]	; 0x408
    9050:	e3c22020 	bic	r2, r2, #32
    9054:	e5832408 	str	r2, [r3, #1032]	; 0x408
    9058:	e5932408 	ldr	r2, [r3, #1032]	; 0x408
    905c:	e3c22080 	bic	r2, r2, #128	; 0x80
    9060:	e5832408 	str	r2, [r3, #1032]	; 0x408
    9064:	e12fff1e 	bx	lr

00009068 <timer_is_pending>:
    9068:	e3a03a0b 	mov	r3, #45056	; 0xb000
    906c:	e3433f00 	movt	r3, #16128	; 0x3f00
    9070:	e5930200 	ldr	r0, [r3, #512]	; 0x200
    9074:	e2000001 	and	r0, r0, #1
    9078:	e12fff1e 	bx	lr

0000907c <timer_clear_pending>:
    907c:	e3a03a0b 	mov	r3, #45056	; 0xb000
    9080:	e3433f00 	movt	r3, #16128	; 0x3f00
    9084:	e593240c 	ldr	r2, [r3, #1036]	; 0x40c
    9088:	e3822001 	orr	r2, r2, #1
    908c:	e583240c 	str	r2, [r3, #1036]	; 0x40c
    9090:	e12fff1e 	bx	lr

00009094 <uart_init>:
    9094:	e92d4008 	push	{r3, lr}
    9098:	e3a0000f 	mov	r0, #15
    909c:	e3a01000 	mov	r1, #0
    90a0:	ebfffc3a 	bl	8190 <gpio_set_pull>
    90a4:	e3a0000e 	mov	r0, #14
    90a8:	e3a01000 	mov	r1, #0
    90ac:	ebfffc37 	bl	8190 <gpio_set_pull>
    90b0:	e3a0000f 	mov	r0, #15
    90b4:	e3a01002 	mov	r1, #2
    90b8:	ebfffbfd 	bl	80b4 <gpio_config>
    90bc:	e3a0000e 	mov	r0, #14
    90c0:	e3a01002 	mov	r1, #2
    90c4:	ebfffbfa 	bl	80b4 <gpio_config>
    90c8:	e3a03a05 	mov	r3, #20480	; 0x5000
    90cc:	e3433f21 	movt	r3, #16161	; 0x3f21
    90d0:	e5932004 	ldr	r2, [r3, #4]
    90d4:	e3822001 	orr	r2, r2, #1
    90d8:	e5832004 	str	r2, [r3, #4]
    90dc:	e3a02000 	mov	r2, #0
    90e0:	e5832044 	str	r2, [r3, #68]	; 0x44
    90e4:	e5932048 	ldr	r2, [r3, #72]	; 0x48
    90e8:	e3822006 	orr	r2, r2, #6
    90ec:	e5832048 	str	r2, [r3, #72]	; 0x48
    90f0:	e593204c 	ldr	r2, [r3, #76]	; 0x4c
    90f4:	e3822003 	orr	r2, r2, #3
    90f8:	e583204c 	str	r2, [r3, #76]	; 0x4c
    90fc:	e300210e 	movw	r2, #270	; 0x10e
    9100:	e5832068 	str	r2, [r3, #104]	; 0x68
    9104:	e8bd8008 	pop	{r3, pc}

00009108 <uart_close>:
    9108:	e3a03a05 	mov	r3, #20480	; 0x5000
    910c:	e3433f21 	movt	r3, #16161	; 0x3f21
    9110:	e5932004 	ldr	r2, [r3, #4]
    9114:	e3c22001 	bic	r2, r2, #1
    9118:	e5832004 	str	r2, [r3, #4]
    911c:	e12fff1e 	bx	lr

00009120 <uart_put_byte>:
    9120:	e3a02a05 	mov	r2, #20480	; 0x5000
    9124:	e3432f21 	movt	r2, #16161	; 0x3f21
    9128:	e5923054 	ldr	r3, [r2, #84]	; 0x54
    912c:	e3130040 	tst	r3, #64	; 0x40
    9130:	0afffffc 	beq	9128 <uart_put_byte+0x8>
    9134:	e3a03a05 	mov	r3, #20480	; 0x5000
    9138:	e3433f21 	movt	r3, #16161	; 0x3f21
    913c:	e5830040 	str	r0, [r3, #64]	; 0x40
    9140:	e12fff1e 	bx	lr

00009144 <uart_get_byte>:
    9144:	e3a02a05 	mov	r2, #20480	; 0x5000
    9148:	e3432f21 	movt	r2, #16161	; 0x3f21
    914c:	e5923054 	ldr	r3, [r2, #84]	; 0x54
    9150:	e3130001 	tst	r3, #1
    9154:	0afffffc 	beq	914c <uart_get_byte+0x8>
    9158:	e3a03a05 	mov	r3, #20480	; 0x5000
    915c:	e3433f21 	movt	r3, #16161	; 0x3f21
    9160:	e5930040 	ldr	r0, [r3, #64]	; 0x40
    9164:	e6ef0070 	uxtb	r0, r0
    9168:	e12fff1e 	bx	lr

0000916c <syscall_exit>:
    916c:	e92d4008 	push	{r3, lr}
    9170:	e1a04000 	mov	r4, r0
    9174:	eb00025b 	bl	9ae8 <disable_interrupts>
    9178:	e30b0024 	movw	r0, #45092	; 0xb024
    917c:	e3400000 	movt	r0, #0
    9180:	e1a01004 	mov	r1, r4
    9184:	ebffff2a 	bl	8e34 <printk>
    9188:	eafffffe 	b	9188 <syscall_exit+0x1c>

0000918c <syscall_write>:
    918c:	e3500001 	cmp	r0, #1
    9190:	1a00000b 	bne	91c4 <syscall_write+0x38>
    9194:	e3520000 	cmp	r2, #0
    9198:	da00000b 	ble	91cc <syscall_write+0x40>
    919c:	e92d4070 	push	{r4, r5, r6, lr}
    91a0:	e1a06002 	mov	r6, r2
    91a4:	e1a04001 	mov	r4, r1
    91a8:	e0815002 	add	r5, r1, r2
    91ac:	e4d40001 	ldrb	r0, [r4], #1
    91b0:	ebffffda 	bl	9120 <uart_put_byte>
    91b4:	e1540005 	cmp	r4, r5
    91b8:	1afffffb 	bne	91ac <syscall_write+0x20>
    91bc:	e1a00006 	mov	r0, r6
    91c0:	e8bd8070 	pop	{r4, r5, r6, pc}
    91c4:	e3e00000 	mvn	r0, #0
    91c8:	e12fff1e 	bx	lr
    91cc:	e1a00002 	mov	r0, r2
    91d0:	e12fff1e 	bx	lr

000091d4 <syscall_read>:
    91d4:	e3500000 	cmp	r0, #0
    91d8:	1a00002e 	bne	9298 <syscall_read+0xc4>
    91dc:	e92d47f0 	push	{r4, r5, r6, r7, r8, r9, sl, lr}
    91e0:	e1a06002 	mov	r6, r2
    91e4:	e1a08001 	mov	r8, r1
    91e8:	e3a05000 	mov	r5, #0
    91ec:	e3a09008 	mov	r9, #8
    91f0:	e3a0a020 	mov	sl, #32
    91f4:	ea00001e 	b	9274 <syscall_read+0xa0>
    91f8:	e3540008 	cmp	r4, #8
    91fc:	1354007f 	cmpne	r4, #127	; 0x7f
    9200:	1a000009 	bne	922c <syscall_read+0x58>
    9204:	e3550000 	cmp	r5, #0
    9208:	da000019 	ble	9274 <syscall_read+0xa0>
    920c:	e2455001 	sub	r5, r5, #1
    9210:	e1a00009 	mov	r0, r9
    9214:	ebffffc1 	bl	9120 <uart_put_byte>
    9218:	e1a0000a 	mov	r0, sl
    921c:	ebffffbf 	bl	9120 <uart_put_byte>
    9220:	e1a00009 	mov	r0, r9
    9224:	ebffffbd 	bl	9120 <uart_put_byte>
    9228:	ea000011 	b	9274 <syscall_read+0xa0>
    922c:	e354000a 	cmp	r4, #10
    9230:	0a000004 	beq	9248 <syscall_read+0x74>
    9234:	e354000d 	cmp	r4, #13
    9238:	1a000008 	bne	9260 <syscall_read+0x8c>
    923c:	ebffffc0 	bl	9144 <uart_get_byte>
    9240:	e350000a 	cmp	r0, #10
    9244:	1a000005 	bne	9260 <syscall_read+0x8c>
    9248:	e2854001 	add	r4, r5, #1
    924c:	e3a0000a 	mov	r0, #10
    9250:	e7c80005 	strb	r0, [r8, r5]
    9254:	ebffffb1 	bl	9120 <uart_put_byte>
    9258:	e1a05004 	mov	r5, r4
    925c:	ea000009 	b	9288 <syscall_read+0xb4>
    9260:	e2857001 	add	r7, r5, #1
    9264:	e7c84005 	strb	r4, [r8, r5]
    9268:	e1a00004 	mov	r0, r4
    926c:	ebffffab 	bl	9120 <uart_put_byte>
    9270:	e1a05007 	mov	r5, r7
    9274:	ebffffb2 	bl	9144 <uart_get_byte>
    9278:	e1a04000 	mov	r4, r0
    927c:	e3500004 	cmp	r0, #4
    9280:	11550006 	cmpne	r5, r6
    9284:	baffffdb 	blt	91f8 <syscall_read+0x24>
    9288:	e3a03000 	mov	r3, #0
    928c:	e7c83005 	strb	r3, [r8, r5]
    9290:	e1a00005 	mov	r0, r5
    9294:	e8bd87f0 	pop	{r4, r5, r6, r7, r8, r9, sl, pc}
    9298:	e3e00000 	mvn	r0, #0
    929c:	e12fff1e 	bx	lr

000092a0 <thread_create>:
    92a0:	e3510000 	cmp	r1, #0
    92a4:	13500000 	cmpne	r0, #0
    92a8:	0a00002b 	beq	935c <thread_create+0xbc>
    92ac:	e92d4070 	push	{r4, r5, r6, lr}
    92b0:	e1a05000 	mov	r5, r0
    92b4:	e1a04001 	mov	r4, r1
    92b8:	e3a01001 	mov	r1, #1
    92bc:	e1a01211 	lsl	r1, r1, r2
    92c0:	e30c0010 	movw	r0, #49168	; 0xc010
    92c4:	e3400000 	movt	r0, #0
    92c8:	e5900000 	ldr	r0, [r0]
    92cc:	e1110000 	tst	r1, r0
    92d0:	1a000023 	bne	9364 <thread_create+0xc4>
    92d4:	e30c0010 	movw	r0, #49168	; 0xc010
    92d8:	e3400000 	movt	r0, #0
    92dc:	e590c000 	ldr	ip, [r0]
    92e0:	e181100c 	orr	r1, r1, ip
    92e4:	e5801000 	str	r1, [r0]
    92e8:	e30cc018 	movw	ip, #49176	; 0xc018
    92ec:	e340c000 	movt	ip, #0
    92f0:	e1a0e182 	lsl	lr, r2, #3
    92f4:	e062000e 	rsb	r0, r2, lr
    92f8:	e1a00200 	lsl	r0, r0, #4
    92fc:	e08c1000 	add	r1, ip, r0
    9300:	e3a06001 	mov	r6, #1
    9304:	e7cc6000 	strb	r6, [ip, r0]
    9308:	e6ef0072 	uxtb	r0, r2
    930c:	e5c10001 	strb	r0, [r1, #1]
    9310:	e5c10002 	strb	r0, [r1, #2]
    9314:	e5813004 	str	r3, [r1, #4]
    9318:	e59d0010 	ldr	r0, [sp, #16]
    931c:	e5810008 	str	r0, [r1, #8]
    9320:	e3a00000 	mov	r0, #0
    9324:	e581000c 	str	r0, [r1, #12]
    9328:	e5916010 	ldr	r6, [r1, #16]
    932c:	e2816018 	add	r6, r1, #24
    9330:	e5810018 	str	r0, [r1, #24]
    9334:	e581001c 	str	r0, [r1, #28]
    9338:	e5815014 	str	r5, [r1, #20]
    933c:	e2813068 	add	r3, r1, #104	; 0x68
    9340:	e5815068 	str	r5, [r1, #104]	; 0x68
    9344:	e3a01010 	mov	r1, #16
    9348:	e5831004 	str	r1, [r3, #4]
    934c:	e062200e 	rsb	r2, r2, lr
    9350:	e08cc202 	add	ip, ip, r2, lsl #4
    9354:	e58c4024 	str	r4, [ip, #36]	; 0x24
    9358:	e8bd8070 	pop	{r4, r5, r6, pc}
    935c:	e3e00000 	mvn	r0, #0
    9360:	e12fff1e 	bx	lr
    9364:	e3e00000 	mvn	r0, #0
    9368:	e8bd8070 	pop	{r4, r5, r6, pc}

0000936c <thread_init>:
    936c:	e92d4070 	push	{r4, r5, r6, lr}
    9370:	e24dd008 	sub	sp, sp, #8
    9374:	e1a06000 	mov	r6, r0
    9378:	e1a05001 	mov	r5, r1
    937c:	e30c3010 	movw	r3, #49168	; 0xc010
    9380:	e3403000 	movt	r3, #0
    9384:	e3a02000 	mov	r2, #0
    9388:	e5832000 	str	r2, [r3]
    938c:	e30c3fa0 	movw	r3, #53152	; 0xcfa0
    9390:	e3403000 	movt	r3, #0
    9394:	e5832000 	str	r2, [r3]
    9398:	e30c3008 	movw	r3, #49160	; 0xc008
    939c:	e3403000 	movt	r3, #0
    93a0:	e3e04000 	mvn	r4, #0
    93a4:	e5834000 	str	r4, [r3]
    93a8:	e5931000 	ldr	r1, [r3]
    93ac:	e30b0034 	movw	r0, #45108	; 0xb034
    93b0:	e3400000 	movt	r0, #0
    93b4:	ebfffe9e 	bl	8e34 <printk>
    93b8:	e58d4000 	str	r4, [sp]
    93bc:	e1a00006 	mov	r0, r6
    93c0:	e1a01005 	mov	r1, r5
    93c4:	e3a0201f 	mov	r2, #31
    93c8:	e1a03004 	mov	r3, r4
    93cc:	ebffffb3 	bl	92a0 <thread_create>
    93d0:	e28dd008 	add	sp, sp, #8
    93d4:	e8bd8070 	pop	{r4, r5, r6, pc}

000093d8 <mutex_init>:
    93d8:	e30c300c 	movw	r3, #49164	; 0xc00c
    93dc:	e3403000 	movt	r3, #0
    93e0:	e5933000 	ldr	r3, [r3]
    93e4:	e353001f 	cmp	r3, #31
    93e8:	8a000016 	bhi	9448 <mutex_init+0x70>
    93ec:	e92d4010 	push	{r4, lr}
    93f0:	e30c300c 	movw	r3, #49164	; 0xc00c
    93f4:	e3403000 	movt	r3, #0
    93f8:	e593c000 	ldr	ip, [r3]
    93fc:	e30c2f20 	movw	r2, #53024	; 0xcf20
    9400:	e3402000 	movt	r2, #0
    9404:	e782010c 	str	r0, [r2, ip, lsl #2]
    9408:	e5930000 	ldr	r0, [r3]
    940c:	e7920100 	ldr	r0, [r2, r0, lsl #2]
    9410:	e3a04000 	mov	r4, #0
    9414:	e5c04000 	strb	r4, [r0]
    9418:	e5930000 	ldr	r0, [r3]
    941c:	e7922100 	ldr	r2, [r2, r0, lsl #2]
    9420:	e5821004 	str	r1, [r2, #4]
    9424:	e5932000 	ldr	r2, [r3]
    9428:	e2822001 	add	r2, r2, #1
    942c:	e5832000 	str	r2, [r3]
    9430:	e5931000 	ldr	r1, [r3]
    9434:	e30b0048 	movw	r0, #45128	; 0xb048
    9438:	e3400000 	movt	r0, #0
    943c:	ebfffe7c 	bl	8e34 <printk>
    9440:	e1a00004 	mov	r0, r4
    9444:	e8bd8010 	pop	{r4, pc}
    9448:	e3e00000 	mvn	r0, #0
    944c:	e12fff1e 	bx	lr

00009450 <get_top_priority_1>:
    9450:	e92d4010 	push	{r4, lr}
    9454:	e3a01020 	mov	r1, #32
    9458:	e1a00001 	mov	r0, r1
    945c:	e3a03000 	mov	r3, #0
    9460:	e30cc018 	movw	ip, #49176	; 0xc018
    9464:	e340c000 	movt	ip, #0
    9468:	e30ce010 	movw	lr, #49168	; 0xc010
    946c:	e340e000 	movt	lr, #0
    9470:	e3a04001 	mov	r4, #1
    9474:	e0632183 	rsb	r2, r3, r3, lsl #3
    9478:	e08c2202 	add	r2, ip, r2, lsl #4
    947c:	e5d22002 	ldrb	r2, [r2, #2]
    9480:	e6ef2072 	uxtb	r2, r2
    9484:	e1520001 	cmp	r2, r1
    9488:	8a000006 	bhi	94a8 <get_top_priority_1+0x58>
    948c:	e59e2000 	ldr	r2, [lr]
    9490:	e0122314 	ands	r2, r2, r4, lsl r3
    9494:	10632183 	rsbne	r2, r3, r3, lsl #3
    9498:	108c2202 	addne	r2, ip, r2, lsl #4
    949c:	15d21002 	ldrbne	r1, [r2, #2]
    94a0:	16ef1071 	uxtbne	r1, r1
    94a4:	11a00003 	movne	r0, r3
    94a8:	e2833001 	add	r3, r3, #1
    94ac:	e3530020 	cmp	r3, #32
    94b0:	1affffef 	bne	9474 <get_top_priority_1+0x24>
    94b4:	e8bd8010 	pop	{r4, pc}

000094b8 <mutex_lock>:
    94b8:	e92d4ff8 	push	{r3, r4, r5, r6, r7, r8, r9, sl, fp, lr}
    94bc:	e1a0a000 	mov	sl, r0
    94c0:	eb000188 	bl	9ae8 <disable_interrupts>
    94c4:	e30c3008 	movw	r3, #49160	; 0xc008
    94c8:	e3403000 	movt	r3, #0
    94cc:	e5932000 	ldr	r2, [r3]
    94d0:	e30c3018 	movw	r3, #49176	; 0xc018
    94d4:	e3403000 	movt	r3, #0
    94d8:	e0622182 	rsb	r2, r2, r2, lsl #3
    94dc:	e0833202 	add	r3, r3, r2, lsl #4
    94e0:	e5d38002 	ldrb	r8, [r3, #2]
    94e4:	e6ef8078 	uxtb	r8, r8
    94e8:	e1a07008 	mov	r7, r8
    94ec:	e3a04000 	mov	r4, #0
    94f0:	e30c5f20 	movw	r5, #53024	; 0xcf20
    94f4:	e3405000 	movt	r5, #0
    94f8:	e30b905c 	movw	r9, #45148	; 0xb05c
    94fc:	e3409000 	movt	r9, #0
    9500:	e30c6018 	movw	r6, #49176	; 0xc018
    9504:	e3406000 	movt	r6, #0
    9508:	e7953104 	ldr	r3, [r5, r4, lsl #2]
    950c:	e5d32000 	ldrb	r2, [r3]
    9510:	e31200ff 	tst	r2, #255	; 0xff
    9514:	0a00001f 	beq	9598 <mutex_lock+0xe0>
    9518:	e5932004 	ldr	r2, [r3, #4]
    951c:	e1570002 	cmp	r7, r2
    9520:	3a00001c 	bcc	9598 <mutex_lock+0xe0>
    9524:	e593b008 	ldr	fp, [r3, #8]
    9528:	e1a00009 	mov	r0, r9
    952c:	e1a01004 	mov	r1, r4
    9530:	e1a0200b 	mov	r2, fp
    9534:	ebfffe3e 	bl	8e34 <printk>
    9538:	e06bb18b 	rsb	fp, fp, fp, lsl #3
    953c:	e086b20b 	add	fp, r6, fp, lsl #4
    9540:	e5cb8002 	strb	r8, [fp, #2]
    9544:	e30c3008 	movw	r3, #49160	; 0xc008
    9548:	e3403000 	movt	r3, #0
    954c:	e5931000 	ldr	r1, [r3]
    9550:	e5d62072 	ldrb	r2, [r6, #114]	; 0x72
    9554:	e5d63152 	ldrb	r3, [r6, #338]	; 0x152
    9558:	e30b0078 	movw	r0, #45176	; 0xb078
    955c:	e3400000 	movt	r0, #0
    9560:	ebfffe33 	bl	8e34 <printk>
    9564:	ebffffb9 	bl	9450 <get_top_priority_1>
    9568:	e1a01000 	mov	r1, r0
    956c:	e30b0098 	movw	r0, #45208	; 0xb098
    9570:	e3400000 	movt	r0, #0
    9574:	ebfffe2e 	bl	8e34 <printk>
    9578:	eb00015f 	bl	9afc <enable_interrupts>
    957c:	e7952104 	ldr	r2, [r5, r4, lsl #2]
    9580:	e5d23000 	ldrb	r3, [r2]
    9584:	e31300ff 	tst	r3, #255	; 0xff
    9588:	1afffffc 	bne	9580 <mutex_lock+0xc8>
    958c:	eb000155 	bl	9ae8 <disable_interrupts>
    9590:	e3a04001 	mov	r4, #1
    9594:	eaffffdb 	b	9508 <mutex_lock+0x50>
    9598:	e2844001 	add	r4, r4, #1
    959c:	e354001f 	cmp	r4, #31
    95a0:	9affffd8 	bls	9508 <mutex_lock+0x50>
    95a4:	eb00014f 	bl	9ae8 <disable_interrupts>
    95a8:	e3a03001 	mov	r3, #1
    95ac:	e5ca3000 	strb	r3, [sl]
    95b0:	e30c3008 	movw	r3, #49160	; 0xc008
    95b4:	e3403000 	movt	r3, #0
    95b8:	e5933000 	ldr	r3, [r3]
    95bc:	e58a3008 	str	r3, [sl, #8]
    95c0:	eb00014d 	bl	9afc <enable_interrupts>
    95c4:	e8bd8ff8 	pop	{r3, r4, r5, r6, r7, r8, r9, sl, fp, pc}

000095c8 <mutex_unlock>:
    95c8:	e92d4010 	push	{r4, lr}
    95cc:	e1a04000 	mov	r4, r0
    95d0:	eb000144 	bl	9ae8 <disable_interrupts>
    95d4:	e3a03000 	mov	r3, #0
    95d8:	e5c43000 	strb	r3, [r4]
    95dc:	e5940008 	ldr	r0, [r4, #8]
    95e0:	e30c3018 	movw	r3, #49176	; 0xc018
    95e4:	e3403000 	movt	r3, #0
    95e8:	e1a02180 	lsl	r2, r0, #3
    95ec:	e0601002 	rsb	r1, r0, r2
    95f0:	e0831201 	add	r1, r3, r1, lsl #4
    95f4:	e5d11001 	ldrb	r1, [r1, #1]
    95f8:	e6ef1071 	uxtb	r1, r1
    95fc:	e0602002 	rsb	r2, r0, r2
    9600:	e0833202 	add	r3, r3, r2, lsl #4
    9604:	e5c31002 	strb	r1, [r3, #2]
    9608:	eb00013b 	bl	9afc <enable_interrupts>
    960c:	e8bd8010 	pop	{r4, pc}

00009610 <scheduler_start>:
    9610:	e92d4ff0 	push	{r4, r5, r6, r7, r8, r9, sl, fp, lr}
    9614:	e24dd00c 	sub	sp, sp, #12
    9618:	e30c3e18 	movw	r3, #52760	; 0xce18
    961c:	e3403000 	movt	r3, #0
    9620:	e3a00000 	mov	r0, #0
    9624:	e3a01000 	mov	r1, #0
    9628:	e3431ff0 	movt	r1, #16368	; 0x3ff0
    962c:	e1c300f8 	strd	r0, [r3, #8]
    9630:	e3040635 	movw	r0, #17973	; 0x4635
    9634:	e34a08eb 	movt	r0, #43243	; 0xa8eb
    9638:	e308126a 	movw	r1, #33386	; 0x826a
    963c:	e3431fea 	movt	r1, #16362	; 0x3fea
    9640:	e1c301f0 	strd	r0, [r3, #16]
    9644:	e30503a4 	movw	r0, #21412	; 0x53a4
    9648:	e3430e57 	movt	r0, #15959	; 0x3e57
    964c:	e30f13cb 	movw	r1, #62411	; 0xf3cb
    9650:	e3431fe8 	movt	r1, #16360	; 0x3fe8
    9654:	e1c301f8 	strd	r0, [r3, #24]
    9658:	e30a0dd6 	movw	r0, #44502	; 0xadd6
    965c:	e349039e 	movt	r0, #37790	; 0x939e
    9660:	e30317de 	movw	r1, #14302	; 0x37de
    9664:	e3431fe8 	movt	r1, #16360	; 0x3fe8
    9668:	e1c302f0 	strd	r0, [r3, #32]
    966c:	e30e05b4 	movw	r0, #58804	; 0xe5b4
    9670:	e3480a5c 	movt	r0, #35420	; 0x8a5c
    9674:	e30c1aab 	movw	r1, #51883	; 0xcaab
    9678:	e3431fe7 	movt	r1, #16359	; 0x3fe7
    967c:	e1c302f8 	strd	r0, [r3, #40]	; 0x28
    9680:	e3090f17 	movw	r0, #40727	; 0x9f17
    9684:	e3460002 	movt	r0, #24578	; 0x6002
    9688:	e308133c 	movw	r1, #33596	; 0x833c
    968c:	e3431fe7 	movt	r1, #16359	; 0x3fe7
    9690:	e1c303f0 	strd	r0, [r3, #48]	; 0x30
    9694:	e30c04c6 	movw	r0, #50374	; 0xc4c6
    9698:	e34e03e6 	movt	r0, #58342	; 0xe3e6
    969c:	e30510da 	movw	r1, #20698	; 0x50da
    96a0:	e3431fe7 	movt	r1, #16359	; 0x3fe7
    96a4:	e1c303f8 	strd	r0, [r3, #56]	; 0x38
    96a8:	e30e0fb3 	movw	r0, #61363	; 0xefb3
    96ac:	e34e008a 	movt	r0, #57482	; 0xe08a
    96b0:	e3021b7f 	movw	r1, #11135	; 0x2b7f
    96b4:	e3431fe7 	movt	r1, #16359	; 0x3fe7
    96b8:	e1c304f0 	strd	r0, [r3, #64]	; 0x40
    96bc:	e3020e1f 	movw	r0, #11807	; 0x2e1f
    96c0:	e34e0e39 	movt	r0, #60985	; 0xee39
    96c4:	e3001e94 	movw	r1, #3732	; 0xe94
    96c8:	e3431fe7 	movt	r1, #16359	; 0x3fe7
    96cc:	e1c304f8 	strd	r0, [r3, #72]	; 0x48
    96d0:	e3070564 	movw	r0, #30052	; 0x7564
    96d4:	e34e07ab 	movt	r0, #59307	; 0xe7ab
    96d8:	e30f17a4 	movw	r1, #63396	; 0xf7a4
    96dc:	e3431fe6 	movt	r1, #16358	; 0x3fe6
    96e0:	e1c305f0 	strd	r0, [r3, #80]	; 0x50
    96e4:	e3080adb 	movw	r0, #35547	; 0x8adb
    96e8:	e34605fd 	movt	r0, #26109	; 0x65fd
    96ec:	e30e14f7 	movw	r1, #58615	; 0xe4f7
    96f0:	e3431fe6 	movt	r1, #16358	; 0x3fe6
    96f4:	e1c305f8 	strd	r0, [r3, #88]	; 0x58
    96f8:	e30f0213 	movw	r0, #61971	; 0xf213
    96fc:	e34c0f41 	movt	r0, #53057	; 0xcf41
    9700:	e30d1566 	movw	r1, #54630	; 0xd566
    9704:	e3431fe6 	movt	r1, #16358	; 0x3fe6
    9708:	e1c306f0 	strd	r0, [r3, #96]	; 0x60
    970c:	e30603f1 	movw	r0, #25585	; 0x63f1
    9710:	e3450dcc 	movt	r0, #24012	; 0x5dcc
    9714:	e30c184b 	movw	r1, #51275	; 0xc84b
    9718:	e3431fe6 	movt	r1, #16358	; 0x3fe6
    971c:	e1c306f8 	strd	r0, [r3, #104]	; 0x68
    9720:	e30a0b22 	movw	r0, #43810	; 0xab22
    9724:	e3430d5b 	movt	r0, #15707	; 0x3d5b
    9728:	e30b1d27 	movw	r1, #48423	; 0xbd27
    972c:	e3431fe6 	movt	r1, #16358	; 0x3fe6
    9730:	e1c307f0 	strd	r0, [r3, #112]	; 0x70
    9734:	e309024f 	movw	r0, #37455	; 0x924f
    9738:	e34909ae 	movt	r0, #39342	; 0x99ae
    973c:	e30b137c 	movw	r1, #45948	; 0xb37c
    9740:	e3431fe6 	movt	r1, #16358	; 0x3fe6
    9744:	e1c307f8 	strd	r0, [r3, #120]	; 0x78
    9748:	e3070ed0 	movw	r0, #32464	; 0x7ed0
    974c:	e34808a4 	movt	r0, #34980	; 0x88a4
    9750:	e30a1b0c 	movw	r1, #43788	; 0xab0c
    9754:	e3431fe6 	movt	r1, #16358	; 0x3fe6
    9758:	e1c308f0 	strd	r0, [r3, #128]	; 0x80
    975c:	e30d05fa 	movw	r0, #54778	; 0xd5fa
    9760:	e342001c 	movt	r0, #8220	; 0x201c
    9764:	e30a1398 	movw	r1, #41880	; 0xa398
    9768:	e3431fe6 	movt	r1, #16358	; 0x3fe6
    976c:	e1c308f8 	strd	r0, [r3, #136]	; 0x88
    9770:	e3080605 	movw	r0, #34309	; 0x8605
    9774:	e3460eac 	movt	r0, #28332	; 0x6eac
    9778:	e3091cf5 	movw	r1, #40181	; 0x9cf5
    977c:	e3431fe6 	movt	r1, #16358	; 0x3fe6
    9780:	e1c309f0 	strd	r0, [r3, #144]	; 0x90
    9784:	e3a00e61 	mov	r0, #1552	; 0x610
    9788:	e3470b9e 	movt	r0, #31646	; 0x7b9e
    978c:	e309170f 	movw	r1, #38671	; 0x970f
    9790:	e3431fe6 	movt	r1, #16358	; 0x3fe6
    9794:	e1c309f8 	strd	r0, [r3, #152]	; 0x98
    9798:	e3040452 	movw	r0, #17490	; 0x4452
    979c:	e3450586 	movt	r0, #21894	; 0x5586
    97a0:	e30911bc 	movw	r1, #37308	; 0x91bc
    97a4:	e3431fe6 	movt	r1, #16358	; 0x3fe6
    97a8:	e1c30af0 	strd	r0, [r3, #160]	; 0xa0
    97ac:	e30400cc 	movw	r0, #16588	; 0x40cc
    97b0:	e34f0c65 	movt	r0, #64613	; 0xfc65
    97b4:	e3081cfb 	movw	r1, #36091	; 0x8cfb
    97b8:	e3431fe6 	movt	r1, #16358	; 0x3fe6
    97bc:	e1c30af8 	strd	r0, [r3, #168]	; 0xa8
    97c0:	e30e09b8 	movw	r0, #59832	; 0xe9b8
    97c4:	e3470ecf 	movt	r0, #32463	; 0x7ecf
    97c8:	e30818a4 	movw	r1, #34980	; 0x88a4
    97cc:	e3431fe6 	movt	r1, #16358	; 0x3fe6
    97d0:	e1c30bf0 	strd	r0, [r3, #176]	; 0xb0
    97d4:	e30b0631 	movw	r0, #46641	; 0xb631
    97d8:	e34e0410 	movt	r0, #58384	; 0xe410
    97dc:	e30814a0 	movw	r1, #33952	; 0x84a0
    97e0:	e3431fe6 	movt	r1, #16358	; 0x3fe6
    97e4:	e1c30bf8 	strd	r0, [r3, #184]	; 0xb8
    97e8:	e3020f1b 	movw	r0, #12059	; 0x2f1b
    97ec:	e34204dd 	movt	r0, #9437	; 0x24dd
    97f0:	e3081106 	movw	r1, #33030	; 0x8106
    97f4:	e3431fe6 	movt	r1, #16358	; 0x3fe6
    97f8:	e1c30cf0 	strd	r0, [r3, #192]	; 0xc0
    97fc:	e30402af 	movw	r0, #17071	; 0x42af
    9800:	e3440fca 	movt	r0, #20426	; 0x4fca
    9804:	e3071daa 	movw	r1, #32170	; 0x7daa
    9808:	e3431fe6 	movt	r1, #16358	; 0x3fe6
    980c:	e1c30cf8 	strd	r0, [r3, #200]	; 0xc8
    9810:	e30f00ed 	movw	r0, #61677	; 0xf0ed
    9814:	e34604d7 	movt	r0, #25815	; 0x64d7
    9818:	e3071a8d 	movw	r1, #31373	; 0x7a8d
    981c:	e3431fe6 	movt	r1, #16358	; 0x3fe6
    9820:	e1c30df0 	strd	r0, [r3, #208]	; 0xd0
    9824:	e30c02b9 	movw	r0, #49849	; 0xc2b9
    9828:	e3450cbb 	movt	r0, #23739	; 0x5cbb
    982c:	e30717c4 	movw	r1, #30660	; 0x77c4
    9830:	e3431fe6 	movt	r1, #16358	; 0x3fe6
    9834:	e1c30df8 	strd	r0, [r3, #216]	; 0xd8
    9838:	e3010d69 	movw	r0, #7529	; 0x1d69
    983c:	e3440d55 	movt	r0, #19797	; 0x4d55
    9840:	e3071510 	movw	r1, #29968	; 0x7510
    9844:	e3431fe6 	movt	r1, #16358	; 0x3fe6
    9848:	e1c30ef0 	strd	r0, [r3, #224]	; 0xe0
    984c:	e30102c2 	movw	r0, #4802	; 0x12c2
    9850:	e342080f 	movt	r0, #10255	; 0x280f
    9854:	e307129b 	movw	r1, #29339	; 0x729b
    9858:	e3431fe6 	movt	r1, #16358	; 0x3fe6
    985c:	e1c30ef8 	strd	r0, [r3, #232]	; 0xe8
    9860:	e30109e3 	movw	r0, #6627	; 0x19e3
    9864:	e34f0434 	movt	r0, #62516	; 0xf434
    9868:	e307104f 	movw	r1, #28751	; 0x704f
    986c:	e3431fe6 	movt	r1, #16358	; 0x3fe6
    9870:	e1c30ff0 	strd	r0, [r3, #240]	; 0xf0
    9874:	e30302ca 	movw	r0, #13002	; 0x32ca
    9878:	e34b01c4 	movt	r0, #45508	; 0xb1c4
    987c:	e3061e2e 	movw	r1, #28206	; 0x6e2e
    9880:	e3431fe6 	movt	r1, #16358	; 0x3fe6
    9884:	e1c30ff8 	strd	r0, [r3, #248]	; 0xf8
    9888:	e2833c01 	add	r3, r3, #256	; 0x100
    988c:	e30d0495 	movw	r0, #54421	; 0xd495
    9890:	e3460809 	movt	r0, #26633	; 0x6809
    9894:	e3061c22 	movw	r1, #27682	; 0x6c22
    9898:	e3431fe6 	movt	r1, #16358	; 0x3fe6
    989c:	e1c300f0 	strd	r0, [r3]
    98a0:	e3a06000 	mov	r6, #0
    98a4:	e3a07000 	mov	r7, #0
    98a8:	e3a05000 	mov	r5, #0
    98ac:	e1a04005 	mov	r4, r5
    98b0:	e30c8010 	movw	r8, #49168	; 0xc010
    98b4:	e3408000 	movt	r8, #0
    98b8:	e3a09001 	mov	r9, #1
    98bc:	e30cb018 	movw	fp, #49176	; 0xc018
    98c0:	e340b000 	movt	fp, #0
    98c4:	e5983000 	ldr	r3, [r8]
    98c8:	e0133419 	ands	r3, r3, r9, lsl r4
    98cc:	0a000013 	beq	9920 <scheduler_start+0x310>
    98d0:	e2855001 	add	r5, r5, #1
    98d4:	e0653185 	rsb	r3, r5, r5, lsl #3
    98d8:	e08b3203 	add	r3, fp, r3, lsl #4
    98dc:	e5930004 	ldr	r0, [r3, #4]
    98e0:	e593a008 	ldr	sl, [r3, #8]
    98e4:	eb0001c0 	bl	9fec <__aeabi_ui2d>
    98e8:	e1cd00f0 	strd	r0, [sp]
    98ec:	e1a0000a 	mov	r0, sl
    98f0:	eb0001bd 	bl	9fec <__aeabi_ui2d>
    98f4:	e1a02000 	mov	r2, r0
    98f8:	e1a03001 	mov	r3, r1
    98fc:	e1cd00d0 	ldrd	r0, [sp]
    9900:	eb00029d 	bl	a37c <__aeabi_ddiv>
    9904:	e1a02000 	mov	r2, r0
    9908:	e1a03001 	mov	r3, r1
    990c:	e1a00006 	mov	r0, r6
    9910:	e1a01007 	mov	r1, r7
    9914:	eb0000f0 	bl	9cdc <__adddf3>
    9918:	e1a06000 	mov	r6, r0
    991c:	e1a07001 	mov	r7, r1
    9920:	e2844001 	add	r4, r4, #1
    9924:	e354001f 	cmp	r4, #31
    9928:	1affffe5 	bne	98c4 <scheduler_start+0x2b4>
    992c:	e30c3e18 	movw	r3, #52760	; 0xce18
    9930:	e3403000 	movt	r3, #0
    9934:	e1a05185 	lsl	r5, r5, #3
    9938:	e1a00006 	mov	r0, r6
    993c:	e1a01007 	mov	r1, r7
    9940:	e18320d5 	ldrd	r2, [r3, r5]
    9944:	eb00035a 	bl	a6b4 <__aeabi_dcmpgt>
    9948:	e3500000 	cmp	r0, #0
    994c:	1a000011 	bne	9998 <scheduler_start+0x388>
    9950:	e30c3014 	movw	r3, #49172	; 0xc014
    9954:	e3403000 	movt	r3, #0
    9958:	e3a02000 	mov	r2, #0
    995c:	e5832000 	str	r2, [r3]
    9960:	e30c300c 	movw	r3, #49164	; 0xc00c
    9964:	e3403000 	movt	r3, #0
    9968:	e5832000 	str	r2, [r3]
    996c:	e30c3018 	movw	r3, #49176	; 0xc018
    9970:	e3403000 	movt	r3, #0
    9974:	e5c32d90 	strb	r2, [r3, #3472]	; 0xd90
    9978:	e30c3008 	movw	r3, #49160	; 0xc008
    997c:	e3403000 	movt	r3, #0
    9980:	e3a0201f 	mov	r2, #31
    9984:	e5832000 	str	r2, [r3]
    9988:	eb00005b 	bl	9afc <enable_interrupts>
    998c:	e3a00ffa 	mov	r0, #1000	; 0x3e8
    9990:	ebfffd95 	bl	8fec <timer_start>
    9994:	eafffffe 	b	9994 <scheduler_start+0x384>
    9998:	e3e00000 	mvn	r0, #0
    999c:	e28dd00c 	add	sp, sp, #12
    99a0:	e8bd8ff0 	pop	{r4, r5, r6, r7, r8, r9, sl, fp, pc}

000099a4 <wait_until_next_period>:
    99a4:	e30c3008 	movw	r3, #49160	; 0xc008
    99a8:	e3403000 	movt	r3, #0
    99ac:	e5933000 	ldr	r3, [r3]
    99b0:	e30c2018 	movw	r2, #49176	; 0xc018
    99b4:	e3402000 	movt	r2, #0
    99b8:	e0633183 	rsb	r3, r3, r3, lsl #3
    99bc:	e1a03203 	lsl	r3, r3, #4
    99c0:	e3a01002 	mov	r1, #2
    99c4:	e7c21003 	strb	r1, [r2, r3]
    99c8:	e30c1008 	movw	r1, #49160	; 0xc008
    99cc:	e3401000 	movt	r1, #0
    99d0:	e30c2018 	movw	r2, #49176	; 0xc018
    99d4:	e3402000 	movt	r2, #0
    99d8:	e5913000 	ldr	r3, [r1]
    99dc:	e0633183 	rsb	r3, r3, r3, lsl #3
    99e0:	e7d23203 	ldrb	r3, [r2, r3, lsl #4]
    99e4:	e6ef3073 	uxtb	r3, r3
    99e8:	e3530002 	cmp	r3, #2
    99ec:	0afffff9 	beq	99d8 <wait_until_next_period+0x34>
    99f0:	e12fff1e 	bx	lr

000099f4 <get_time>:
    99f4:	e30c3014 	movw	r3, #49172	; 0xc014
    99f8:	e3403000 	movt	r3, #0
    99fc:	e5930000 	ldr	r0, [r3]
    9a00:	e12fff1e 	bx	lr

00009a04 <spin_wait>:
    9a04:	e30c3008 	movw	r3, #49160	; 0xc008
    9a08:	e3403000 	movt	r3, #0
    9a0c:	e5932000 	ldr	r2, [r3]
    9a10:	e30c3018 	movw	r3, #49176	; 0xc018
    9a14:	e3403000 	movt	r3, #0
    9a18:	e0622182 	rsb	r2, r2, r2, lsl #3
    9a1c:	e0833202 	add	r3, r3, r2, lsl #4
    9a20:	e583001c 	str	r0, [r3, #28]
    9a24:	e30c1008 	movw	r1, #49160	; 0xc008
    9a28:	e3401000 	movt	r1, #0
    9a2c:	e30c2018 	movw	r2, #49176	; 0xc018
    9a30:	e3402000 	movt	r2, #0
    9a34:	e5913000 	ldr	r3, [r1]
    9a38:	e0633183 	rsb	r3, r3, r3, lsl #3
    9a3c:	e0823203 	add	r3, r2, r3, lsl #4
    9a40:	e2833018 	add	r3, r3, #24
    9a44:	e5933004 	ldr	r3, [r3, #4]
    9a48:	e3530000 	cmp	r3, #0
    9a4c:	1afffff8 	bne	9a34 <spin_wait+0x30>
    9a50:	e12fff1e 	bx	lr

00009a54 <syscall_sbrk>:
    9a54:	e30c3000 	movw	r3, #49152	; 0xc000
    9a58:	e3403000 	movt	r3, #0
    9a5c:	e5933000 	ldr	r3, [r3]
    9a60:	e3530000 	cmp	r3, #0
    9a64:	030c3000 	movweq	r3, #49152	; 0xc000
    9a68:	03403000 	movteq	r3, #0
    9a6c:	030d2000 	movweq	r2, #53248	; 0xd000
    9a70:	03402000 	movteq	r2, #0
    9a74:	05832000 	streq	r2, [r3]
    9a78:	e30c3000 	movw	r3, #49152	; 0xc000
    9a7c:	e3403000 	movt	r3, #0
    9a80:	e5933000 	ldr	r3, [r3]
    9a84:	e0830000 	add	r0, r3, r0
    9a88:	e30d2000 	movw	r2, #53248	; 0xd000
    9a8c:	e3402010 	movt	r2, #16
    9a90:	e1500002 	cmp	r0, r2
    9a94:	930c2000 	movwls	r2, #49152	; 0xc000
    9a98:	93402000 	movtls	r2, #0
    9a9c:	95820000 	strls	r0, [r2]
    9aa0:	91a00003 	movls	r0, r3
    9aa4:	83e00000 	mvnhi	r0, #0
    9aa8:	e12fff1e 	bx	lr

00009aac <syscall_close>:
    9aac:	e3e00000 	mvn	r0, #0
    9ab0:	e12fff1e 	bx	lr

00009ab4 <syscall_fstat>:
    9ab4:	e3a00000 	mov	r0, #0
    9ab8:	e12fff1e 	bx	lr

00009abc <syscall_isatty>:
    9abc:	e3a00001 	mov	r0, #1
    9ac0:	e12fff1e 	bx	lr

00009ac4 <syscall_lseek>:
    9ac4:	e3a00000 	mov	r0, #0
    9ac8:	e12fff1e 	bx	lr

00009acc <delay_cycles>:
    9acc:	e2500001 	subs	r0, r0, #1
    9ad0:	1afffffd 	bne	9acc <delay_cycles>
    9ad4:	e1a0f00e 	mov	pc, lr

00009ad8 <read_cpsr>:
    9ad8:	e10f0000 	mrs	r0, CPSR
    9adc:	e1a0f00e 	mov	pc, lr

00009ae0 <write_cpsr>:
    9ae0:	e129f000 	msr	CPSR_fc, r0
    9ae4:	e1a0f00e 	mov	pc, lr

00009ae8 <disable_interrupts>:
    9ae8:	e10f0000 	mrs	r0, CPSR
    9aec:	e3a01d07 	mov	r1, #448	; 0x1c0
    9af0:	e1800001 	orr	r0, r0, r1
    9af4:	e129f000 	msr	CPSR_fc, r0
    9af8:	e1a0f00e 	mov	pc, lr

00009afc <enable_interrupts>:
    9afc:	e10f0000 	mrs	r0, CPSR
    9b00:	e3a01d07 	mov	r1, #448	; 0x1c0
    9b04:	e1c00001 	bic	r0, r0, r1
    9b08:	e129f000 	msr	CPSR_fc, r0
    9b0c:	e1a0f00e 	mov	pc, lr

00009b10 <interrupt_vector_table>:
    9b10:	e59ff018 	ldr	pc, [pc, #24]	; 9b30 <_reset_asm_handler>
    9b14:	e59ff018 	ldr	pc, [pc, #24]	; 9b34 <_undefined_instruction_asm_handler>
    9b18:	e59ff018 	ldr	pc, [pc, #24]	; 9b38 <_swi_asm_handler>
    9b1c:	e59ff018 	ldr	pc, [pc, #24]	; 9b3c <_prefetch_abort_asm_handler>
    9b20:	e59ff018 	ldr	pc, [pc, #24]	; 9b40 <_data_abort_asm_handler>
    9b24:	e59ff004 	ldr	pc, [pc, #4]	; 9b30 <_reset_asm_handler>
    9b28:	e59ff014 	ldr	pc, [pc, #20]	; 9b44 <_irq_asm_handler>
    9b2c:	e59ff014 	ldr	pc, [pc, #20]	; 9b48 <_fiq_asm_handler>

00009b30 <_reset_asm_handler>:
    9b30:	00009c94 	muleq	r0, r4, ip

00009b34 <_undefined_instruction_asm_handler>:
    9b34:	00009c98 	muleq	r0, r8, ip

00009b38 <_swi_asm_handler>:
    9b38:	00009b70 	andeq	r9, r0, r0, ror fp

00009b3c <_prefetch_abort_asm_handler>:
    9b3c:	00009c9c 	muleq	r0, ip, ip

00009b40 <_data_abort_asm_handler>:
    9b40:	00009ca0 	andeq	r9, r0, r0, lsr #25

00009b44 <_irq_asm_handler>:
    9b44:	00009bcc 	andeq	r9, r0, ip, asr #23

00009b48 <_fiq_asm_handler>:
    9b48:	00009ca4 	andeq	r9, r0, r4, lsr #25

00009b4c <install_interrupt_table>:
    9b4c:	e92d5fff 	push	{r0, r1, r2, r3, r4, r5, r6, r7, r8, r9, sl, fp, ip, lr}
    9b50:	e59f016c 	ldr	r0, [pc, #364]	; 9cc4 <enter_user_mode+0x1c>
    9b54:	e3a01000 	mov	r1, #0
    9b58:	e8b003fc 	ldm	r0!, {r2, r3, r4, r5, r6, r7, r8, r9}
    9b5c:	e8a103fc 	stmia	r1!, {r2, r3, r4, r5, r6, r7, r8, r9}
    9b60:	e8b001fc 	ldm	r0!, {r2, r3, r4, r5, r6, r7, r8}
    9b64:	e8a101fc 	stmia	r1!, {r2, r3, r4, r5, r6, r7, r8}
    9b68:	e8bd5fff 	pop	{r0, r1, r2, r3, r4, r5, r6, r7, r8, r9, sl, fp, ip, lr}
    9b6c:	e12fff1e 	bx	lr

00009b70 <swi_asm_handler>:
    9b70:	e321f0df 	msr	CPSR_c, #223	; 0xdf
    9b74:	e24dd008 	sub	sp, sp, #8
    9b78:	e92d5fff 	push	{r0, r1, r2, r3, r4, r5, r6, r7, r8, r9, sl, fp, ip, lr}
    9b7c:	e1a0100d 	mov	r1, sp
    9b80:	e321f0d3 	msr	CPSR_c, #211	; 0xd3
    9b84:	e14f2000 	mrs	r2, SPSR
    9b88:	e5812038 	str	r2, [r1, #56]	; 0x38
    9b8c:	e581e03c 	str	lr, [r1, #60]	; 0x3c
    9b90:	e51e0004 	ldr	r0, [lr, #-4]
    9b94:	e3c004ff 	bic	r0, r0, #-16777216	; 0xff000000
    9b98:	e321f0df 	msr	CPSR_c, #223	; 0xdf
    9b9c:	ebfffbfc 	bl	8b94 <swi_c_handler>
    9ba0:	e1a0100d 	mov	r1, sp
    9ba4:	e321f0d3 	msr	CPSR_c, #211	; 0xd3
    9ba8:	e591e03c 	ldr	lr, [r1, #60]	; 0x3c
    9bac:	e5912038 	ldr	r2, [r1, #56]	; 0x38
    9bb0:	e169f002 	msr	SPSR_fc, r2
    9bb4:	e321f0df 	msr	CPSR_c, #223	; 0xdf
    9bb8:	e28dd004 	add	sp, sp, #4
    9bbc:	e8bd5ffe 	pop	{r1, r2, r3, r4, r5, r6, r7, r8, r9, sl, fp, ip, lr}
    9bc0:	e28dd008 	add	sp, sp, #8
    9bc4:	e321f0d3 	msr	CPSR_c, #211	; 0xd3
    9bc8:	e1b0f00e 	movs	pc, lr

00009bcc <irq_asm_handler>:
    9bcc:	e59fd0f4 	ldr	sp, [pc, #244]	; 9cc8 <enter_user_mode+0x20>
    9bd0:	e94d7fff 	stmdb	sp, {r0, r1, r2, r3, r4, r5, r6, r7, r8, r9, sl, fp, ip, sp, lr}^
    9bd4:	e24dd03c 	sub	sp, sp, #60	; 0x3c
    9bd8:	e321f0d3 	msr	CPSR_c, #211	; 0xd3
    9bdc:	e14f0000 	mrs	r0, SPSR
    9be0:	e1a0100d 	mov	r1, sp
    9be4:	e1a0200e 	mov	r2, lr
    9be8:	e321f0d2 	msr	CPSR_c, #210	; 0xd2
    9bec:	e92d0007 	push	{r0, r1, r2}
    9bf0:	e14f0000 	mrs	r0, SPSR
    9bf4:	e24ee004 	sub	lr, lr, #4
    9bf8:	e92d4001 	push	{r0, lr}
    9bfc:	e1a0000d 	mov	r0, sp
    9c00:	ebfffbcd 	bl	8b3c <irq_c_handler>
    9c04:	e8bd4001 	pop	{r0, lr}
    9c08:	e169f000 	msr	SPSR_fc, r0
    9c0c:	e8bd0007 	pop	{r0, r1, r2}
    9c10:	e321f0d3 	msr	CPSR_c, #211	; 0xd3
    9c14:	e169f000 	msr	SPSR_fc, r0
    9c18:	e1a0d001 	mov	sp, r1
    9c1c:	e1a0e002 	mov	lr, r2
    9c20:	e321f0d2 	msr	CPSR_c, #210	; 0xd2
    9c24:	e8dd7fff 	ldm	sp, {r0, r1, r2, r3, r4, r5, r6, r7, r8, r9, sl, fp, ip, sp, lr}^
    9c28:	e28dd03c 	add	sp, sp, #60	; 0x3c
    9c2c:	e1b0f00e 	movs	pc, lr
    9c30:	e59fd090 	ldr	sp, [pc, #144]	; 9cc8 <enter_user_mode+0x20>
    9c34:	e321f0df 	msr	CPSR_c, #223	; 0xdf
    9c38:	e92d5fff 	push	{r0, r1, r2, r3, r4, r5, r6, r7, r8, r9, sl, fp, ip, lr}
    9c3c:	e1a0000d 	mov	r0, sp
    9c40:	e321f0d3 	msr	CPSR_c, #211	; 0xd3
    9c44:	e14f1000 	mrs	r1, SPSR
    9c48:	e9204002 	stmdb	r0!, {r1, lr}
    9c4c:	e321f0d2 	msr	CPSR_c, #210	; 0xd2
    9c50:	e24ee004 	sub	lr, lr, #4
    9c54:	e14f1000 	mrs	r1, SPSR
    9c58:	e9200002 	stmdb	r0!, {r1}
    9c5c:	e92d4000 	stmfd	sp!, {lr}
    9c60:	e1a0100d 	mov	r1, sp
    9c64:	ebfffbb4 	bl	8b3c <irq_c_handler>
    9c68:	e8bd4000 	ldmfd	sp!, {lr}
    9c6c:	e8b00002 	ldm	r0!, {r1}
    9c70:	e169f001 	msr	SPSR_fc, r1
    9c74:	e321f0d3 	msr	CPSR_c, #211	; 0xd3
    9c78:	e8b04002 	ldm	r0!, {r1, lr}
    9c7c:	e169f001 	msr	SPSR_fc, r1
    9c80:	e321f0df 	msr	CPSR_c, #223	; 0xdf
    9c84:	e1a0d000 	mov	sp, r0
    9c88:	e8bd5fff 	pop	{r0, r1, r2, r3, r4, r5, r6, r7, r8, r9, sl, fp, ip, lr}
    9c8c:	e321f0d2 	msr	CPSR_c, #210	; 0xd2
    9c90:	e1b0f00e 	movs	pc, lr

00009c94 <reset_asm_handler>:
    9c94:	eafff8d9 	b	8000 <__start>

00009c98 <undefined_instruction_asm_handler>:
    9c98:	e1200070 	bkpt	0x0000

00009c9c <prefetch_abort_asm_handler>:
    9c9c:	e1200070 	bkpt	0x0000

00009ca0 <data_abort_asm_handler>:
    9ca0:	e1200070 	bkpt	0x0000

00009ca4 <fiq_asm_handler>:
    9ca4:	e1200070 	bkpt	0x0000

00009ca8 <enter_user_mode>:
    9ca8:	e92d5fff 	push	{r0, r1, r2, r3, r4, r5, r6, r7, r8, r9, sl, fp, ip, lr}
    9cac:	e10f0000 	mrs	r0, CPSR
    9cb0:	e3c000ff 	bic	r0, r0, #255	; 0xff
    9cb4:	e38000d0 	orr	r0, r0, #208	; 0xd0
    9cb8:	e121f000 	msr	CPSR_c, r0
    9cbc:	e59fd008 	ldr	sp, [pc, #8]	; 9ccc <enter_user_mode+0x24>
    9cc0:	ea0bd8ce 	b	300000 <__user_program>
    9cc4:	00009b10 	andeq	r9, r0, r0, lsl fp
    9cc8:	0012e000 	andseq	lr, r2, r0
    9ccc:	0012d000 	andseq	sp, r2, r0

00009cd0 <__aeabi_drsub>:
    9cd0:	e2211102 	eor	r1, r1, #-2147483648	; 0x80000000
    9cd4:	ea000000 	b	9cdc <__adddf3>

00009cd8 <__aeabi_dsub>:
    9cd8:	e2233102 	eor	r3, r3, #-2147483648	; 0x80000000

00009cdc <__adddf3>:
    9cdc:	e92d4030 	push	{r4, r5, lr}
    9ce0:	e1a04081 	lsl	r4, r1, #1
    9ce4:	e1a05083 	lsl	r5, r3, #1
    9ce8:	e1340005 	teq	r4, r5
    9cec:	01300002 	teqeq	r0, r2
    9cf0:	1194c000 	orrsne	ip, r4, r0
    9cf4:	1195c002 	orrsne	ip, r5, r2
    9cf8:	11f0cac4 	mvnsne	ip, r4, asr #21
    9cfc:	11f0cac5 	mvnsne	ip, r5, asr #21
    9d00:	0a00008c 	beq	9f38 <__adddf3+0x25c>
    9d04:	e1a04aa4 	lsr	r4, r4, #21
    9d08:	e0745aa5 	rsbs	r5, r4, r5, lsr #21
    9d0c:	b2655000 	rsblt	r5, r5, #0
    9d10:	da000006 	ble	9d30 <__adddf3+0x54>
    9d14:	e0844005 	add	r4, r4, r5
    9d18:	e0202002 	eor	r2, r0, r2
    9d1c:	e0213003 	eor	r3, r1, r3
    9d20:	e0220000 	eor	r0, r2, r0
    9d24:	e0231001 	eor	r1, r3, r1
    9d28:	e0202002 	eor	r2, r0, r2
    9d2c:	e0213003 	eor	r3, r1, r3
    9d30:	e3550036 	cmp	r5, #54	; 0x36
    9d34:	88bd4030 	pophi	{r4, r5, lr}
    9d38:	812fff1e 	bxhi	lr
    9d3c:	e3110102 	tst	r1, #-2147483648	; 0x80000000
    9d40:	e1a01601 	lsl	r1, r1, #12
    9d44:	e3a0c601 	mov	ip, #1048576	; 0x100000
    9d48:	e18c1621 	orr	r1, ip, r1, lsr #12
    9d4c:	0a000001 	beq	9d58 <__adddf3+0x7c>
    9d50:	e2700000 	rsbs	r0, r0, #0
    9d54:	e2e11000 	rsc	r1, r1, #0
    9d58:	e3130102 	tst	r3, #-2147483648	; 0x80000000
    9d5c:	e1a03603 	lsl	r3, r3, #12
    9d60:	e18c3623 	orr	r3, ip, r3, lsr #12
    9d64:	0a000001 	beq	9d70 <__adddf3+0x94>
    9d68:	e2722000 	rsbs	r2, r2, #0
    9d6c:	e2e33000 	rsc	r3, r3, #0
    9d70:	e1340005 	teq	r4, r5
    9d74:	0a000069 	beq	9f20 <__adddf3+0x244>
    9d78:	e2444001 	sub	r4, r4, #1
    9d7c:	e275e020 	rsbs	lr, r5, #32
    9d80:	ba000005 	blt	9d9c <__adddf3+0xc0>
    9d84:	e1a0ce12 	lsl	ip, r2, lr
    9d88:	e0900532 	adds	r0, r0, r2, lsr r5
    9d8c:	e2a11000 	adc	r1, r1, #0
    9d90:	e0900e13 	adds	r0, r0, r3, lsl lr
    9d94:	e0b11553 	adcs	r1, r1, r3, asr r5
    9d98:	ea000006 	b	9db8 <__adddf3+0xdc>
    9d9c:	e2455020 	sub	r5, r5, #32
    9da0:	e28ee020 	add	lr, lr, #32
    9da4:	e3520001 	cmp	r2, #1
    9da8:	e1a0ce13 	lsl	ip, r3, lr
    9dac:	238cc002 	orrcs	ip, ip, #2
    9db0:	e0900553 	adds	r0, r0, r3, asr r5
    9db4:	e0b11fc3 	adcs	r1, r1, r3, asr #31
    9db8:	e2015102 	and	r5, r1, #-2147483648	; 0x80000000
    9dbc:	5a000002 	bpl	9dcc <__adddf3+0xf0>
    9dc0:	e27cc000 	rsbs	ip, ip, #0
    9dc4:	e2f00000 	rscs	r0, r0, #0
    9dc8:	e2e11000 	rsc	r1, r1, #0
    9dcc:	e3510601 	cmp	r1, #1048576	; 0x100000
    9dd0:	3a00000f 	bcc	9e14 <__adddf3+0x138>
    9dd4:	e3510602 	cmp	r1, #2097152	; 0x200000
    9dd8:	3a000006 	bcc	9df8 <__adddf3+0x11c>
    9ddc:	e1b010a1 	lsrs	r1, r1, #1
    9de0:	e1b00060 	rrxs	r0, r0
    9de4:	e1a0c06c 	rrx	ip, ip
    9de8:	e2844001 	add	r4, r4, #1
    9dec:	e1a02a84 	lsl	r2, r4, #21
    9df0:	e3720501 	cmn	r2, #4194304	; 0x400000
    9df4:	2a00006b 	bcs	9fa8 <__adddf3+0x2cc>
    9df8:	e35c0102 	cmp	ip, #-2147483648	; 0x80000000
    9dfc:	01b0c0a0 	lsrseq	ip, r0, #1
    9e00:	e2b00000 	adcs	r0, r0, #0
    9e04:	e0a11a04 	adc	r1, r1, r4, lsl #20
    9e08:	e1811005 	orr	r1, r1, r5
    9e0c:	e8bd4030 	pop	{r4, r5, lr}
    9e10:	e12fff1e 	bx	lr
    9e14:	e1b0c08c 	lsls	ip, ip, #1
    9e18:	e0b00000 	adcs	r0, r0, r0
    9e1c:	e0a11001 	adc	r1, r1, r1
    9e20:	e3110601 	tst	r1, #1048576	; 0x100000
    9e24:	e2444001 	sub	r4, r4, #1
    9e28:	1afffff2 	bne	9df8 <__adddf3+0x11c>
    9e2c:	e3310000 	teq	r1, #0
    9e30:	13a03014 	movne	r3, #20
    9e34:	03a03034 	moveq	r3, #52	; 0x34
    9e38:	01a01000 	moveq	r1, r0
    9e3c:	03a00000 	moveq	r0, #0
    9e40:	e1a02001 	mov	r2, r1
    9e44:	e3520801 	cmp	r2, #65536	; 0x10000
    9e48:	21a02822 	lsrcs	r2, r2, #16
    9e4c:	22433010 	subcs	r3, r3, #16
    9e50:	e3520c01 	cmp	r2, #256	; 0x100
    9e54:	21a02422 	lsrcs	r2, r2, #8
    9e58:	22433008 	subcs	r3, r3, #8
    9e5c:	e3520010 	cmp	r2, #16
    9e60:	21a02222 	lsrcs	r2, r2, #4
    9e64:	22433004 	subcs	r3, r3, #4
    9e68:	e3520004 	cmp	r2, #4
    9e6c:	22433002 	subcs	r3, r3, #2
    9e70:	304330a2 	subcc	r3, r3, r2, lsr #1
    9e74:	e04331a2 	sub	r3, r3, r2, lsr #3
    9e78:	e2532020 	subs	r2, r3, #32
    9e7c:	aa000007 	bge	9ea0 <__adddf3+0x1c4>
    9e80:	e292200c 	adds	r2, r2, #12
    9e84:	da000004 	ble	9e9c <__adddf3+0x1c0>
    9e88:	e282c014 	add	ip, r2, #20
    9e8c:	e262200c 	rsb	r2, r2, #12
    9e90:	e1a00c11 	lsl	r0, r1, ip
    9e94:	e1a01231 	lsr	r1, r1, r2
    9e98:	ea000004 	b	9eb0 <__adddf3+0x1d4>
    9e9c:	e2822014 	add	r2, r2, #20
    9ea0:	d262c020 	rsble	ip, r2, #32
    9ea4:	e1a01211 	lsl	r1, r1, r2
    9ea8:	d1811c30 	orrle	r1, r1, r0, lsr ip
    9eac:	d1a00210 	lslle	r0, r0, r2
    9eb0:	e0544003 	subs	r4, r4, r3
    9eb4:	a0811a04 	addge	r1, r1, r4, lsl #20
    9eb8:	a1811005 	orrge	r1, r1, r5
    9ebc:	a8bd4030 	popge	{r4, r5, lr}
    9ec0:	a12fff1e 	bxge	lr
    9ec4:	e1e04004 	mvn	r4, r4
    9ec8:	e254401f 	subs	r4, r4, #31
    9ecc:	aa00000f 	bge	9f10 <__adddf3+0x234>
    9ed0:	e294400c 	adds	r4, r4, #12
    9ed4:	ca000006 	bgt	9ef4 <__adddf3+0x218>
    9ed8:	e2844014 	add	r4, r4, #20
    9edc:	e2642020 	rsb	r2, r4, #32
    9ee0:	e1a00430 	lsr	r0, r0, r4
    9ee4:	e1800211 	orr	r0, r0, r1, lsl r2
    9ee8:	e1851431 	orr	r1, r5, r1, lsr r4
    9eec:	e8bd4030 	pop	{r4, r5, lr}
    9ef0:	e12fff1e 	bx	lr
    9ef4:	e264400c 	rsb	r4, r4, #12
    9ef8:	e2642020 	rsb	r2, r4, #32
    9efc:	e1a00230 	lsr	r0, r0, r2
    9f00:	e1800411 	orr	r0, r0, r1, lsl r4
    9f04:	e1a01005 	mov	r1, r5
    9f08:	e8bd4030 	pop	{r4, r5, lr}
    9f0c:	e12fff1e 	bx	lr
    9f10:	e1a00431 	lsr	r0, r1, r4
    9f14:	e1a01005 	mov	r1, r5
    9f18:	e8bd4030 	pop	{r4, r5, lr}
    9f1c:	e12fff1e 	bx	lr
    9f20:	e3340000 	teq	r4, #0
    9f24:	e2233601 	eor	r3, r3, #1048576	; 0x100000
    9f28:	02211601 	eoreq	r1, r1, #1048576	; 0x100000
    9f2c:	02844001 	addeq	r4, r4, #1
    9f30:	12455001 	subne	r5, r5, #1
    9f34:	eaffff8f 	b	9d78 <__adddf3+0x9c>
    9f38:	e1f0cac4 	mvns	ip, r4, asr #21
    9f3c:	11f0cac5 	mvnsne	ip, r5, asr #21
    9f40:	0a00001d 	beq	9fbc <__adddf3+0x2e0>
    9f44:	e1340005 	teq	r4, r5
    9f48:	01300002 	teqeq	r0, r2
    9f4c:	0a000004 	beq	9f64 <__adddf3+0x288>
    9f50:	e194c000 	orrs	ip, r4, r0
    9f54:	01a01003 	moveq	r1, r3
    9f58:	01a00002 	moveq	r0, r2
    9f5c:	e8bd4030 	pop	{r4, r5, lr}
    9f60:	e12fff1e 	bx	lr
    9f64:	e1310003 	teq	r1, r3
    9f68:	13a01000 	movne	r1, #0
    9f6c:	13a00000 	movne	r0, #0
    9f70:	18bd4030 	popne	{r4, r5, lr}
    9f74:	112fff1e 	bxne	lr
    9f78:	e1b0caa4 	lsrs	ip, r4, #21
    9f7c:	1a000004 	bne	9f94 <__adddf3+0x2b8>
    9f80:	e1b00080 	lsls	r0, r0, #1
    9f84:	e0b11001 	adcs	r1, r1, r1
    9f88:	23811102 	orrcs	r1, r1, #-2147483648	; 0x80000000
    9f8c:	e8bd4030 	pop	{r4, r5, lr}
    9f90:	e12fff1e 	bx	lr
    9f94:	e2944501 	adds	r4, r4, #4194304	; 0x400000
    9f98:	32811601 	addcc	r1, r1, #1048576	; 0x100000
    9f9c:	38bd4030 	popcc	{r4, r5, lr}
    9fa0:	312fff1e 	bxcc	lr
    9fa4:	e2015102 	and	r5, r1, #-2147483648	; 0x80000000
    9fa8:	e385147f 	orr	r1, r5, #2130706432	; 0x7f000000
    9fac:	e381160f 	orr	r1, r1, #15728640	; 0xf00000
    9fb0:	e3a00000 	mov	r0, #0
    9fb4:	e8bd4030 	pop	{r4, r5, lr}
    9fb8:	e12fff1e 	bx	lr
    9fbc:	e1f0cac4 	mvns	ip, r4, asr #21
    9fc0:	11a01003 	movne	r1, r3
    9fc4:	11a00002 	movne	r0, r2
    9fc8:	01f0cac5 	mvnseq	ip, r5, asr #21
    9fcc:	11a03001 	movne	r3, r1
    9fd0:	11a02000 	movne	r2, r0
    9fd4:	e1904601 	orrs	r4, r0, r1, lsl #12
    9fd8:	01925603 	orrseq	r5, r2, r3, lsl #12
    9fdc:	01310003 	teqeq	r1, r3
    9fe0:	13811702 	orrne	r1, r1, #524288	; 0x80000
    9fe4:	e8bd4030 	pop	{r4, r5, lr}
    9fe8:	e12fff1e 	bx	lr

00009fec <__aeabi_ui2d>:
    9fec:	e3300000 	teq	r0, #0
    9ff0:	03a01000 	moveq	r1, #0
    9ff4:	012fff1e 	bxeq	lr
    9ff8:	e92d4030 	push	{r4, r5, lr}
    9ffc:	e3a04b01 	mov	r4, #1024	; 0x400
    a000:	e2844032 	add	r4, r4, #50	; 0x32
    a004:	e3a05000 	mov	r5, #0
    a008:	e3a01000 	mov	r1, #0
    a00c:	eaffff86 	b	9e2c <__adddf3+0x150>

0000a010 <__aeabi_i2d>:
    a010:	e3300000 	teq	r0, #0
    a014:	03a01000 	moveq	r1, #0
    a018:	012fff1e 	bxeq	lr
    a01c:	e92d4030 	push	{r4, r5, lr}
    a020:	e3a04b01 	mov	r4, #1024	; 0x400
    a024:	e2844032 	add	r4, r4, #50	; 0x32
    a028:	e2105102 	ands	r5, r0, #-2147483648	; 0x80000000
    a02c:	42600000 	rsbmi	r0, r0, #0
    a030:	e3a01000 	mov	r1, #0
    a034:	eaffff7c 	b	9e2c <__adddf3+0x150>

0000a038 <__aeabi_f2d>:
    a038:	e1b02080 	lsls	r2, r0, #1
    a03c:	e1a011c2 	asr	r1, r2, #3
    a040:	e1a01061 	rrx	r1, r1
    a044:	e1a00e02 	lsl	r0, r2, #28
    a048:	121234ff 	andsne	r3, r2, #-16777216	; 0xff000000
    a04c:	133304ff 	teqne	r3, #-16777216	; 0xff000000
    a050:	1221130e 	eorne	r1, r1, #939524096	; 0x38000000
    a054:	112fff1e 	bxne	lr
    a058:	e3320000 	teq	r2, #0
    a05c:	133304ff 	teqne	r3, #-16777216	; 0xff000000
    a060:	012fff1e 	bxeq	lr
    a064:	e92d4030 	push	{r4, r5, lr}
    a068:	e3a04d0e 	mov	r4, #896	; 0x380
    a06c:	e2015102 	and	r5, r1, #-2147483648	; 0x80000000
    a070:	e3c11102 	bic	r1, r1, #-2147483648	; 0x80000000
    a074:	eaffff6c 	b	9e2c <__adddf3+0x150>

0000a078 <__aeabi_ul2d>:
    a078:	e1902001 	orrs	r2, r0, r1
    a07c:	012fff1e 	bxeq	lr
    a080:	e92d4030 	push	{r4, r5, lr}
    a084:	e3a05000 	mov	r5, #0
    a088:	ea000006 	b	a0a8 <__aeabi_l2d+0x1c>

0000a08c <__aeabi_l2d>:
    a08c:	e1902001 	orrs	r2, r0, r1
    a090:	012fff1e 	bxeq	lr
    a094:	e92d4030 	push	{r4, r5, lr}
    a098:	e2115102 	ands	r5, r1, #-2147483648	; 0x80000000
    a09c:	5a000001 	bpl	a0a8 <__aeabi_l2d+0x1c>
    a0a0:	e2700000 	rsbs	r0, r0, #0
    a0a4:	e2e11000 	rsc	r1, r1, #0
    a0a8:	e3a04b01 	mov	r4, #1024	; 0x400
    a0ac:	e2844032 	add	r4, r4, #50	; 0x32
    a0b0:	e1b0cb21 	lsrs	ip, r1, #22
    a0b4:	0affff44 	beq	9dcc <__adddf3+0xf0>
    a0b8:	e3a02003 	mov	r2, #3
    a0bc:	e1b0c1ac 	lsrs	ip, ip, #3
    a0c0:	12822003 	addne	r2, r2, #3
    a0c4:	e1b0c1ac 	lsrs	ip, ip, #3
    a0c8:	12822003 	addne	r2, r2, #3
    a0cc:	e08221ac 	add	r2, r2, ip, lsr #3
    a0d0:	e2623020 	rsb	r3, r2, #32
    a0d4:	e1a0c310 	lsl	ip, r0, r3
    a0d8:	e1a00230 	lsr	r0, r0, r2
    a0dc:	e1800311 	orr	r0, r0, r1, lsl r3
    a0e0:	e1a01231 	lsr	r1, r1, r2
    a0e4:	e0844002 	add	r4, r4, r2
    a0e8:	eaffff37 	b	9dcc <__adddf3+0xf0>

0000a0ec <__aeabi_dmul>:
    a0ec:	e92d4070 	push	{r4, r5, r6, lr}
    a0f0:	e3a0c0ff 	mov	ip, #255	; 0xff
    a0f4:	e38ccc07 	orr	ip, ip, #1792	; 0x700
    a0f8:	e01c4a21 	ands	r4, ip, r1, lsr #20
    a0fc:	101c5a23 	andsne	r5, ip, r3, lsr #20
    a100:	1134000c 	teqne	r4, ip
    a104:	1135000c 	teqne	r5, ip
    a108:	0b000075 	bleq	a2e4 <__aeabi_dmul+0x1f8>
    a10c:	e0844005 	add	r4, r4, r5
    a110:	e0216003 	eor	r6, r1, r3
    a114:	e1c11a8c 	bic	r1, r1, ip, lsl #21
    a118:	e1c33a8c 	bic	r3, r3, ip, lsl #21
    a11c:	e1905601 	orrs	r5, r0, r1, lsl #12
    a120:	11925603 	orrsne	r5, r2, r3, lsl #12
    a124:	e3811601 	orr	r1, r1, #1048576	; 0x100000
    a128:	e3833601 	orr	r3, r3, #1048576	; 0x100000
    a12c:	0a00001d 	beq	a1a8 <__aeabi_dmul+0xbc>
    a130:	e08ec290 	umull	ip, lr, r0, r2
    a134:	e3a05000 	mov	r5, #0
    a138:	e0a5e291 	umlal	lr, r5, r1, r2
    a13c:	e2062102 	and	r2, r6, #-2147483648	; 0x80000000
    a140:	e0a5e390 	umlal	lr, r5, r0, r3
    a144:	e3a06000 	mov	r6, #0
    a148:	e0a65391 	umlal	r5, r6, r1, r3
    a14c:	e33c0000 	teq	ip, #0
    a150:	138ee001 	orrne	lr, lr, #1
    a154:	e24440ff 	sub	r4, r4, #255	; 0xff
    a158:	e3560c02 	cmp	r6, #512	; 0x200
    a15c:	e2c44c03 	sbc	r4, r4, #768	; 0x300
    a160:	2a000002 	bcs	a170 <__aeabi_dmul+0x84>
    a164:	e1b0e08e 	lsls	lr, lr, #1
    a168:	e0b55005 	adcs	r5, r5, r5
    a16c:	e0a66006 	adc	r6, r6, r6
    a170:	e1821586 	orr	r1, r2, r6, lsl #11
    a174:	e1811aa5 	orr	r1, r1, r5, lsr #21
    a178:	e1a00585 	lsl	r0, r5, #11
    a17c:	e1800aae 	orr	r0, r0, lr, lsr #21
    a180:	e1a0e58e 	lsl	lr, lr, #11
    a184:	e254c0fd 	subs	ip, r4, #253	; 0xfd
    a188:	835c0c07 	cmphi	ip, #1792	; 0x700
    a18c:	8a000011 	bhi	a1d8 <__aeabi_dmul+0xec>
    a190:	e35e0102 	cmp	lr, #-2147483648	; 0x80000000
    a194:	01b0e0a0 	lsrseq	lr, r0, #1
    a198:	e2b00000 	adcs	r0, r0, #0
    a19c:	e0a11a04 	adc	r1, r1, r4, lsl #20
    a1a0:	e8bd4070 	pop	{r4, r5, r6, lr}
    a1a4:	e12fff1e 	bx	lr
    a1a8:	e2066102 	and	r6, r6, #-2147483648	; 0x80000000
    a1ac:	e1861001 	orr	r1, r6, r1
    a1b0:	e1800002 	orr	r0, r0, r2
    a1b4:	e0211003 	eor	r1, r1, r3
    a1b8:	e05440ac 	subs	r4, r4, ip, lsr #1
    a1bc:	c074500c 	rsbsgt	r5, r4, ip
    a1c0:	c1811a04 	orrgt	r1, r1, r4, lsl #20
    a1c4:	c8bd4070 	popgt	{r4, r5, r6, lr}
    a1c8:	c12fff1e 	bxgt	lr
    a1cc:	e3811601 	orr	r1, r1, #1048576	; 0x100000
    a1d0:	e3a0e000 	mov	lr, #0
    a1d4:	e2544001 	subs	r4, r4, #1
    a1d8:	ca00005d 	bgt	a354 <__aeabi_dmul+0x268>
    a1dc:	e3740036 	cmn	r4, #54	; 0x36
    a1e0:	d3a00000 	movle	r0, #0
    a1e4:	d2011102 	andle	r1, r1, #-2147483648	; 0x80000000
    a1e8:	d8bd4070 	pople	{r4, r5, r6, lr}
    a1ec:	d12fff1e 	bxle	lr
    a1f0:	e2644000 	rsb	r4, r4, #0
    a1f4:	e2544020 	subs	r4, r4, #32
    a1f8:	aa00001a 	bge	a268 <__aeabi_dmul+0x17c>
    a1fc:	e294400c 	adds	r4, r4, #12
    a200:	ca00000c 	bgt	a238 <__aeabi_dmul+0x14c>
    a204:	e2844014 	add	r4, r4, #20
    a208:	e2645020 	rsb	r5, r4, #32
    a20c:	e1a03510 	lsl	r3, r0, r5
    a210:	e1a00430 	lsr	r0, r0, r4
    a214:	e1800511 	orr	r0, r0, r1, lsl r5
    a218:	e2012102 	and	r2, r1, #-2147483648	; 0x80000000
    a21c:	e3c11102 	bic	r1, r1, #-2147483648	; 0x80000000
    a220:	e0900fa3 	adds	r0, r0, r3, lsr #31
    a224:	e0a21431 	adc	r1, r2, r1, lsr r4
    a228:	e19ee083 	orrs	lr, lr, r3, lsl #1
    a22c:	01c00fa3 	biceq	r0, r0, r3, lsr #31
    a230:	e8bd4070 	pop	{r4, r5, r6, lr}
    a234:	e12fff1e 	bx	lr
    a238:	e264400c 	rsb	r4, r4, #12
    a23c:	e2645020 	rsb	r5, r4, #32
    a240:	e1a03410 	lsl	r3, r0, r4
    a244:	e1a00530 	lsr	r0, r0, r5
    a248:	e1800411 	orr	r0, r0, r1, lsl r4
    a24c:	e2011102 	and	r1, r1, #-2147483648	; 0x80000000
    a250:	e0900fa3 	adds	r0, r0, r3, lsr #31
    a254:	e2a11000 	adc	r1, r1, #0
    a258:	e19ee083 	orrs	lr, lr, r3, lsl #1
    a25c:	01c00fa3 	biceq	r0, r0, r3, lsr #31
    a260:	e8bd4070 	pop	{r4, r5, r6, lr}
    a264:	e12fff1e 	bx	lr
    a268:	e2645020 	rsb	r5, r4, #32
    a26c:	e18ee510 	orr	lr, lr, r0, lsl r5
    a270:	e1a03430 	lsr	r3, r0, r4
    a274:	e1833511 	orr	r3, r3, r1, lsl r5
    a278:	e1a00431 	lsr	r0, r1, r4
    a27c:	e2011102 	and	r1, r1, #-2147483648	; 0x80000000
    a280:	e1c00431 	bic	r0, r0, r1, lsr r4
    a284:	e0800fa3 	add	r0, r0, r3, lsr #31
    a288:	e19ee083 	orrs	lr, lr, r3, lsl #1
    a28c:	01c00fa3 	biceq	r0, r0, r3, lsr #31
    a290:	e8bd4070 	pop	{r4, r5, r6, lr}
    a294:	e12fff1e 	bx	lr
    a298:	e3340000 	teq	r4, #0
    a29c:	1a000008 	bne	a2c4 <__aeabi_dmul+0x1d8>
    a2a0:	e2016102 	and	r6, r1, #-2147483648	; 0x80000000
    a2a4:	e1b00080 	lsls	r0, r0, #1
    a2a8:	e0a11001 	adc	r1, r1, r1
    a2ac:	e3110601 	tst	r1, #1048576	; 0x100000
    a2b0:	02444001 	subeq	r4, r4, #1
    a2b4:	0afffffa 	beq	a2a4 <__aeabi_dmul+0x1b8>
    a2b8:	e1811006 	orr	r1, r1, r6
    a2bc:	e3350000 	teq	r5, #0
    a2c0:	112fff1e 	bxne	lr
    a2c4:	e2036102 	and	r6, r3, #-2147483648	; 0x80000000
    a2c8:	e1b02082 	lsls	r2, r2, #1
    a2cc:	e0a33003 	adc	r3, r3, r3
    a2d0:	e3130601 	tst	r3, #1048576	; 0x100000
    a2d4:	02455001 	subeq	r5, r5, #1
    a2d8:	0afffffa 	beq	a2c8 <__aeabi_dmul+0x1dc>
    a2dc:	e1833006 	orr	r3, r3, r6
    a2e0:	e12fff1e 	bx	lr
    a2e4:	e134000c 	teq	r4, ip
    a2e8:	e00c5a23 	and	r5, ip, r3, lsr #20
    a2ec:	1135000c 	teqne	r5, ip
    a2f0:	0a000007 	beq	a314 <__aeabi_dmul+0x228>
    a2f4:	e1906081 	orrs	r6, r0, r1, lsl #1
    a2f8:	11926083 	orrsne	r6, r2, r3, lsl #1
    a2fc:	1affffe5 	bne	a298 <__aeabi_dmul+0x1ac>
    a300:	e0211003 	eor	r1, r1, r3
    a304:	e2011102 	and	r1, r1, #-2147483648	; 0x80000000
    a308:	e3a00000 	mov	r0, #0
    a30c:	e8bd4070 	pop	{r4, r5, r6, lr}
    a310:	e12fff1e 	bx	lr
    a314:	e1906081 	orrs	r6, r0, r1, lsl #1
    a318:	01a00002 	moveq	r0, r2
    a31c:	01a01003 	moveq	r1, r3
    a320:	11926083 	orrsne	r6, r2, r3, lsl #1
    a324:	0a000010 	beq	a36c <__aeabi_dmul+0x280>
    a328:	e134000c 	teq	r4, ip
    a32c:	1a000001 	bne	a338 <__aeabi_dmul+0x24c>
    a330:	e1906601 	orrs	r6, r0, r1, lsl #12
    a334:	1a00000c 	bne	a36c <__aeabi_dmul+0x280>
    a338:	e135000c 	teq	r5, ip
    a33c:	1a000003 	bne	a350 <__aeabi_dmul+0x264>
    a340:	e1926603 	orrs	r6, r2, r3, lsl #12
    a344:	11a00002 	movne	r0, r2
    a348:	11a01003 	movne	r1, r3
    a34c:	1a000006 	bne	a36c <__aeabi_dmul+0x280>
    a350:	e0211003 	eor	r1, r1, r3
    a354:	e2011102 	and	r1, r1, #-2147483648	; 0x80000000
    a358:	e381147f 	orr	r1, r1, #2130706432	; 0x7f000000
    a35c:	e381160f 	orr	r1, r1, #15728640	; 0xf00000
    a360:	e3a00000 	mov	r0, #0
    a364:	e8bd4070 	pop	{r4, r5, r6, lr}
    a368:	e12fff1e 	bx	lr
    a36c:	e381147f 	orr	r1, r1, #2130706432	; 0x7f000000
    a370:	e381173e 	orr	r1, r1, #16252928	; 0xf80000
    a374:	e8bd4070 	pop	{r4, r5, r6, lr}
    a378:	e12fff1e 	bx	lr

0000a37c <__aeabi_ddiv>:
    a37c:	e92d4070 	push	{r4, r5, r6, lr}
    a380:	e3a0c0ff 	mov	ip, #255	; 0xff
    a384:	e38ccc07 	orr	ip, ip, #1792	; 0x700
    a388:	e01c4a21 	ands	r4, ip, r1, lsr #20
    a38c:	101c5a23 	andsne	r5, ip, r3, lsr #20
    a390:	1134000c 	teqne	r4, ip
    a394:	1135000c 	teqne	r5, ip
    a398:	0b00005e 	bleq	a518 <__aeabi_ddiv+0x19c>
    a39c:	e0444005 	sub	r4, r4, r5
    a3a0:	e021e003 	eor	lr, r1, r3
    a3a4:	e1925603 	orrs	r5, r2, r3, lsl #12
    a3a8:	e1a01601 	lsl	r1, r1, #12
    a3ac:	0a00004c 	beq	a4e4 <__aeabi_ddiv+0x168>
    a3b0:	e1a03603 	lsl	r3, r3, #12
    a3b4:	e3a05201 	mov	r5, #268435456	; 0x10000000
    a3b8:	e1853223 	orr	r3, r5, r3, lsr #4
    a3bc:	e1833c22 	orr	r3, r3, r2, lsr #24
    a3c0:	e1a02402 	lsl	r2, r2, #8
    a3c4:	e1855221 	orr	r5, r5, r1, lsr #4
    a3c8:	e1855c20 	orr	r5, r5, r0, lsr #24
    a3cc:	e1a06400 	lsl	r6, r0, #8
    a3d0:	e20e1102 	and	r1, lr, #-2147483648	; 0x80000000
    a3d4:	e1550003 	cmp	r5, r3
    a3d8:	01560002 	cmpeq	r6, r2
    a3dc:	e2a440fd 	adc	r4, r4, #253	; 0xfd
    a3e0:	e2844c03 	add	r4, r4, #768	; 0x300
    a3e4:	2a000001 	bcs	a3f0 <__aeabi_ddiv+0x74>
    a3e8:	e1b030a3 	lsrs	r3, r3, #1
    a3ec:	e1a02062 	rrx	r2, r2
    a3f0:	e0566002 	subs	r6, r6, r2
    a3f4:	e0c55003 	sbc	r5, r5, r3
    a3f8:	e1b030a3 	lsrs	r3, r3, #1
    a3fc:	e1a02062 	rrx	r2, r2
    a400:	e3a00601 	mov	r0, #1048576	; 0x100000
    a404:	e3a0c702 	mov	ip, #524288	; 0x80000
    a408:	e056e002 	subs	lr, r6, r2
    a40c:	e0d5e003 	sbcs	lr, r5, r3
    a410:	20466002 	subcs	r6, r6, r2
    a414:	21a0500e 	movcs	r5, lr
    a418:	2180000c 	orrcs	r0, r0, ip
    a41c:	e1b030a3 	lsrs	r3, r3, #1
    a420:	e1a02062 	rrx	r2, r2
    a424:	e056e002 	subs	lr, r6, r2
    a428:	e0d5e003 	sbcs	lr, r5, r3
    a42c:	20466002 	subcs	r6, r6, r2
    a430:	21a0500e 	movcs	r5, lr
    a434:	218000ac 	orrcs	r0, r0, ip, lsr #1
    a438:	e1b030a3 	lsrs	r3, r3, #1
    a43c:	e1a02062 	rrx	r2, r2
    a440:	e056e002 	subs	lr, r6, r2
    a444:	e0d5e003 	sbcs	lr, r5, r3
    a448:	20466002 	subcs	r6, r6, r2
    a44c:	21a0500e 	movcs	r5, lr
    a450:	2180012c 	orrcs	r0, r0, ip, lsr #2
    a454:	e1b030a3 	lsrs	r3, r3, #1
    a458:	e1a02062 	rrx	r2, r2
    a45c:	e056e002 	subs	lr, r6, r2
    a460:	e0d5e003 	sbcs	lr, r5, r3
    a464:	20466002 	subcs	r6, r6, r2
    a468:	21a0500e 	movcs	r5, lr
    a46c:	218001ac 	orrcs	r0, r0, ip, lsr #3
    a470:	e195e006 	orrs	lr, r5, r6
    a474:	0a00000d 	beq	a4b0 <__aeabi_ddiv+0x134>
    a478:	e1a05205 	lsl	r5, r5, #4
    a47c:	e1855e26 	orr	r5, r5, r6, lsr #28
    a480:	e1a06206 	lsl	r6, r6, #4
    a484:	e1a03183 	lsl	r3, r3, #3
    a488:	e1833ea2 	orr	r3, r3, r2, lsr #29
    a48c:	e1a02182 	lsl	r2, r2, #3
    a490:	e1b0c22c 	lsrs	ip, ip, #4
    a494:	1affffdb 	bne	a408 <__aeabi_ddiv+0x8c>
    a498:	e3110601 	tst	r1, #1048576	; 0x100000
    a49c:	1a000006 	bne	a4bc <__aeabi_ddiv+0x140>
    a4a0:	e1811000 	orr	r1, r1, r0
    a4a4:	e3a00000 	mov	r0, #0
    a4a8:	e3a0c102 	mov	ip, #-2147483648	; 0x80000000
    a4ac:	eaffffd5 	b	a408 <__aeabi_ddiv+0x8c>
    a4b0:	e3110601 	tst	r1, #1048576	; 0x100000
    a4b4:	01811000 	orreq	r1, r1, r0
    a4b8:	03a00000 	moveq	r0, #0
    a4bc:	e254c0fd 	subs	ip, r4, #253	; 0xfd
    a4c0:	835c0c07 	cmphi	ip, #1792	; 0x700
    a4c4:	8affff43 	bhi	a1d8 <__aeabi_dmul+0xec>
    a4c8:	e055c003 	subs	ip, r5, r3
    a4cc:	0056c002 	subseq	ip, r6, r2
    a4d0:	01b0c0a0 	lsrseq	ip, r0, #1
    a4d4:	e2b00000 	adcs	r0, r0, #0
    a4d8:	e0a11a04 	adc	r1, r1, r4, lsl #20
    a4dc:	e8bd4070 	pop	{r4, r5, r6, lr}
    a4e0:	e12fff1e 	bx	lr
    a4e4:	e20ee102 	and	lr, lr, #-2147483648	; 0x80000000
    a4e8:	e18e1621 	orr	r1, lr, r1, lsr #12
    a4ec:	e09440ac 	adds	r4, r4, ip, lsr #1
    a4f0:	c074500c 	rsbsgt	r5, r4, ip
    a4f4:	c1811a04 	orrgt	r1, r1, r4, lsl #20
    a4f8:	c8bd4070 	popgt	{r4, r5, r6, lr}
    a4fc:	c12fff1e 	bxgt	lr
    a500:	e3811601 	orr	r1, r1, #1048576	; 0x100000
    a504:	e3a0e000 	mov	lr, #0
    a508:	e2544001 	subs	r4, r4, #1
    a50c:	eaffff31 	b	a1d8 <__aeabi_dmul+0xec>
    a510:	e185e006 	orr	lr, r5, r6
    a514:	eaffff2f 	b	a1d8 <__aeabi_dmul+0xec>
    a518:	e00c5a23 	and	r5, ip, r3, lsr #20
    a51c:	e134000c 	teq	r4, ip
    a520:	0135000c 	teqeq	r5, ip
    a524:	0affff90 	beq	a36c <__aeabi_dmul+0x280>
    a528:	e134000c 	teq	r4, ip
    a52c:	1a000006 	bne	a54c <__aeabi_ddiv+0x1d0>
    a530:	e1904601 	orrs	r4, r0, r1, lsl #12
    a534:	1affff8c 	bne	a36c <__aeabi_dmul+0x280>
    a538:	e135000c 	teq	r5, ip
    a53c:	1affff83 	bne	a350 <__aeabi_dmul+0x264>
    a540:	e1a00002 	mov	r0, r2
    a544:	e1a01003 	mov	r1, r3
    a548:	eaffff87 	b	a36c <__aeabi_dmul+0x280>
    a54c:	e135000c 	teq	r5, ip
    a550:	1a000004 	bne	a568 <__aeabi_ddiv+0x1ec>
    a554:	e1925603 	orrs	r5, r2, r3, lsl #12
    a558:	0affff68 	beq	a300 <__aeabi_dmul+0x214>
    a55c:	e1a00002 	mov	r0, r2
    a560:	e1a01003 	mov	r1, r3
    a564:	eaffff80 	b	a36c <__aeabi_dmul+0x280>
    a568:	e1906081 	orrs	r6, r0, r1, lsl #1
    a56c:	11926083 	orrsne	r6, r2, r3, lsl #1
    a570:	1affff48 	bne	a298 <__aeabi_dmul+0x1ac>
    a574:	e1904081 	orrs	r4, r0, r1, lsl #1
    a578:	1affff74 	bne	a350 <__aeabi_dmul+0x264>
    a57c:	e1925083 	orrs	r5, r2, r3, lsl #1
    a580:	1affff5e 	bne	a300 <__aeabi_dmul+0x214>
    a584:	eaffff78 	b	a36c <__aeabi_dmul+0x280>

0000a588 <__gedf2>:
    a588:	e3e0c000 	mvn	ip, #0
    a58c:	ea000002 	b	a59c <__cmpdf2+0x4>

0000a590 <__ledf2>:
    a590:	e3a0c001 	mov	ip, #1
    a594:	ea000000 	b	a59c <__cmpdf2+0x4>

0000a598 <__cmpdf2>:
    a598:	e3a0c001 	mov	ip, #1
    a59c:	e52dc004 	push	{ip}		; (str ip, [sp, #-4]!)
    a5a0:	e1a0c081 	lsl	ip, r1, #1
    a5a4:	e1f0cacc 	mvns	ip, ip, asr #21
    a5a8:	e1a0c083 	lsl	ip, r3, #1
    a5ac:	11f0cacc 	mvnsne	ip, ip, asr #21
    a5b0:	0a00000e 	beq	a5f0 <__cmpdf2+0x58>
    a5b4:	e28dd004 	add	sp, sp, #4
    a5b8:	e190c081 	orrs	ip, r0, r1, lsl #1
    a5bc:	0192c083 	orrseq	ip, r2, r3, lsl #1
    a5c0:	11310003 	teqne	r1, r3
    a5c4:	01300002 	teqeq	r0, r2
    a5c8:	03a00000 	moveq	r0, #0
    a5cc:	012fff1e 	bxeq	lr
    a5d0:	e3700000 	cmn	r0, #0
    a5d4:	e1310003 	teq	r1, r3
    a5d8:	51510003 	cmppl	r1, r3
    a5dc:	01500002 	cmpeq	r0, r2
    a5e0:	21a00fc3 	asrcs	r0, r3, #31
    a5e4:	31e00fc3 	mvncc	r0, r3, asr #31
    a5e8:	e3800001 	orr	r0, r0, #1
    a5ec:	e12fff1e 	bx	lr
    a5f0:	e1a0c081 	lsl	ip, r1, #1
    a5f4:	e1f0cacc 	mvns	ip, ip, asr #21
    a5f8:	1a000001 	bne	a604 <__cmpdf2+0x6c>
    a5fc:	e190c601 	orrs	ip, r0, r1, lsl #12
    a600:	1a000004 	bne	a618 <__cmpdf2+0x80>
    a604:	e1a0c083 	lsl	ip, r3, #1
    a608:	e1f0cacc 	mvns	ip, ip, asr #21
    a60c:	1affffe8 	bne	a5b4 <__cmpdf2+0x1c>
    a610:	e192c603 	orrs	ip, r2, r3, lsl #12
    a614:	0affffe6 	beq	a5b4 <__cmpdf2+0x1c>
    a618:	e49d0004 	pop	{r0}		; (ldr r0, [sp], #4)
    a61c:	e12fff1e 	bx	lr

0000a620 <__aeabi_cdrcmple>:
    a620:	e1a0c000 	mov	ip, r0
    a624:	e1a00002 	mov	r0, r2
    a628:	e1a0200c 	mov	r2, ip
    a62c:	e1a0c001 	mov	ip, r1
    a630:	e1a01003 	mov	r1, r3
    a634:	e1a0300c 	mov	r3, ip
    a638:	eaffffff 	b	a63c <__aeabi_cdcmpeq>

0000a63c <__aeabi_cdcmpeq>:
    a63c:	e92d4001 	push	{r0, lr}
    a640:	ebffffd4 	bl	a598 <__cmpdf2>
    a644:	e3500000 	cmp	r0, #0
    a648:	43700000 	cmnmi	r0, #0
    a64c:	e8bd4001 	pop	{r0, lr}
    a650:	e12fff1e 	bx	lr

0000a654 <__aeabi_dcmpeq>:
    a654:	e52de008 	str	lr, [sp, #-8]!
    a658:	ebfffff7 	bl	a63c <__aeabi_cdcmpeq>
    a65c:	03a00001 	moveq	r0, #1
    a660:	13a00000 	movne	r0, #0
    a664:	e49de008 	ldr	lr, [sp], #8
    a668:	e12fff1e 	bx	lr

0000a66c <__aeabi_dcmplt>:
    a66c:	e52de008 	str	lr, [sp, #-8]!
    a670:	ebfffff1 	bl	a63c <__aeabi_cdcmpeq>
    a674:	33a00001 	movcc	r0, #1
    a678:	23a00000 	movcs	r0, #0
    a67c:	e49de008 	ldr	lr, [sp], #8
    a680:	e12fff1e 	bx	lr

0000a684 <__aeabi_dcmple>:
    a684:	e52de008 	str	lr, [sp, #-8]!
    a688:	ebffffeb 	bl	a63c <__aeabi_cdcmpeq>
    a68c:	93a00001 	movls	r0, #1
    a690:	83a00000 	movhi	r0, #0
    a694:	e49de008 	ldr	lr, [sp], #8
    a698:	e12fff1e 	bx	lr

0000a69c <__aeabi_dcmpge>:
    a69c:	e52de008 	str	lr, [sp, #-8]!
    a6a0:	ebffffde 	bl	a620 <__aeabi_cdrcmple>
    a6a4:	93a00001 	movls	r0, #1
    a6a8:	83a00000 	movhi	r0, #0
    a6ac:	e49de008 	ldr	lr, [sp], #8
    a6b0:	e12fff1e 	bx	lr

0000a6b4 <__aeabi_dcmpgt>:
    a6b4:	e52de008 	str	lr, [sp, #-8]!
    a6b8:	ebffffd8 	bl	a620 <__aeabi_cdrcmple>
    a6bc:	33a00001 	movcc	r0, #1
    a6c0:	23a00000 	movcs	r0, #0
    a6c4:	e49de008 	ldr	lr, [sp], #8
    a6c8:	e12fff1e 	bx	lr

0000a6cc <__aeabi_uldivmod>:
    a6cc:	e3530000 	cmp	r3, #0
    a6d0:	03520000 	cmpeq	r2, #0
    a6d4:	1a000004 	bne	a6ec <__aeabi_uldivmod+0x20>
    a6d8:	e3510000 	cmp	r1, #0
    a6dc:	03500000 	cmpeq	r0, #0
    a6e0:	13e01000 	mvnne	r1, #0
    a6e4:	13e00000 	mvnne	r0, #0
    a6e8:	ea000027 	b	a78c <__aeabi_idiv0>
    a6ec:	e24dd008 	sub	sp, sp, #8
    a6f0:	e92d6000 	push	{sp, lr}
    a6f4:	eb000014 	bl	a74c <__gnu_uldivmod_helper>
    a6f8:	e59de004 	ldr	lr, [sp, #4]
    a6fc:	e28dd008 	add	sp, sp, #8
    a700:	e8bd000c 	pop	{r2, r3}
    a704:	e12fff1e 	bx	lr

0000a708 <__gnu_ldivmod_helper>:
    a708:	e92d47f0 	push	{r4, r5, r6, r7, r8, r9, sl, lr}
    a70c:	e59d6020 	ldr	r6, [sp, #32]
    a710:	e1a07002 	mov	r7, r2
    a714:	e1a0a003 	mov	sl, r3
    a718:	e1a04000 	mov	r4, r0
    a71c:	e1a05001 	mov	r5, r1
    a720:	eb00001a 	bl	a790 <__divdi3>
    a724:	e1a03000 	mov	r3, r0
    a728:	e0020197 	mul	r2, r7, r1
    a72c:	e0898097 	umull	r8, r9, r7, r0
    a730:	e023239a 	mla	r3, sl, r3, r2
    a734:	e0544008 	subs	r4, r4, r8
    a738:	e0839009 	add	r9, r3, r9
    a73c:	e0c55009 	sbc	r5, r5, r9
    a740:	e8860030 	stm	r6, {r4, r5}
    a744:	e8bd47f0 	pop	{r4, r5, r6, r7, r8, r9, sl, lr}
    a748:	e12fff1e 	bx	lr

0000a74c <__gnu_uldivmod_helper>:
    a74c:	e92d41f0 	push	{r4, r5, r6, r7, r8, lr}
    a750:	e59d5018 	ldr	r5, [sp, #24]
    a754:	e1a04002 	mov	r4, r2
    a758:	e1a08003 	mov	r8, r3
    a75c:	e1a06000 	mov	r6, r0
    a760:	e1a07001 	mov	r7, r1
    a764:	eb000067 	bl	a908 <__udivdi3>
    a768:	e0080890 	mul	r8, r0, r8
    a76c:	e0832490 	umull	r2, r3, r0, r4
    a770:	e0248491 	mla	r4, r1, r4, r8
    a774:	e0566002 	subs	r6, r6, r2
    a778:	e0843003 	add	r3, r4, r3
    a77c:	e0c77003 	sbc	r7, r7, r3
    a780:	e88500c0 	stm	r5, {r6, r7}
    a784:	e8bd41f0 	pop	{r4, r5, r6, r7, r8, lr}
    a788:	e12fff1e 	bx	lr

0000a78c <__aeabi_idiv0>:
    a78c:	e12fff1e 	bx	lr

0000a790 <__divdi3>:
    a790:	e3510000 	cmp	r1, #0
    a794:	e92d4ff8 	push	{r3, r4, r5, r6, r7, r8, r9, sl, fp, lr}
    a798:	a1a04000 	movge	r4, r0
    a79c:	a1a05001 	movge	r5, r1
    a7a0:	a3a0a000 	movge	sl, #0
    a7a4:	ba000053 	blt	a8f8 <__divdi3+0x168>
    a7a8:	e3530000 	cmp	r3, #0
    a7ac:	a1a08002 	movge	r8, r2
    a7b0:	a1a09003 	movge	r9, r3
    a7b4:	ba00004b 	blt	a8e8 <__divdi3+0x158>
    a7b8:	e1550009 	cmp	r5, r9
    a7bc:	01540008 	cmpeq	r4, r8
    a7c0:	33a02000 	movcc	r2, #0
    a7c4:	33a03000 	movcc	r3, #0
    a7c8:	3a00003b 	bcc	a8bc <__divdi3+0x12c>
    a7cc:	e1a01009 	mov	r1, r9
    a7d0:	e1a00008 	mov	r0, r8
    a7d4:	eb000093 	bl	aa28 <__clzdi2>
    a7d8:	e1a01005 	mov	r1, r5
    a7dc:	e1a0b000 	mov	fp, r0
    a7e0:	e1a00004 	mov	r0, r4
    a7e4:	eb00008f 	bl	aa28 <__clzdi2>
    a7e8:	e060000b 	rsb	r0, r0, fp
    a7ec:	e240e020 	sub	lr, r0, #32
    a7f0:	e1a07019 	lsl	r7, r9, r0
    a7f4:	e1877e18 	orr	r7, r7, r8, lsl lr
    a7f8:	e260c020 	rsb	ip, r0, #32
    a7fc:	e1877c38 	orr	r7, r7, r8, lsr ip
    a800:	e1550007 	cmp	r5, r7
    a804:	e1a06018 	lsl	r6, r8, r0
    a808:	01540006 	cmpeq	r4, r6
    a80c:	e1a01000 	mov	r1, r0
    a810:	33a02000 	movcc	r2, #0
    a814:	33a03000 	movcc	r3, #0
    a818:	3a000005 	bcc	a834 <__divdi3+0xa4>
    a81c:	e3a08001 	mov	r8, #1
    a820:	e0544006 	subs	r4, r4, r6
    a824:	e1a03e18 	lsl	r3, r8, lr
    a828:	e1833c38 	orr	r3, r3, r8, lsr ip
    a82c:	e0c55007 	sbc	r5, r5, r7
    a830:	e1a02018 	lsl	r2, r8, r0
    a834:	e3500000 	cmp	r0, #0
    a838:	0a00001f 	beq	a8bc <__divdi3+0x12c>
    a83c:	e1b070a7 	lsrs	r7, r7, #1
    a840:	e1a06066 	rrx	r6, r6
    a844:	ea000007 	b	a868 <__divdi3+0xd8>
    a848:	e0544006 	subs	r4, r4, r6
    a84c:	e0c55007 	sbc	r5, r5, r7
    a850:	e0944004 	adds	r4, r4, r4
    a854:	e0a55005 	adc	r5, r5, r5
    a858:	e2944001 	adds	r4, r4, #1
    a85c:	e2a55000 	adc	r5, r5, #0
    a860:	e2500001 	subs	r0, r0, #1
    a864:	0a000006 	beq	a884 <__divdi3+0xf4>
    a868:	e1570005 	cmp	r7, r5
    a86c:	01560004 	cmpeq	r6, r4
    a870:	9afffff4 	bls	a848 <__divdi3+0xb8>
    a874:	e0944004 	adds	r4, r4, r4
    a878:	e0a55005 	adc	r5, r5, r5
    a87c:	e2500001 	subs	r0, r0, #1
    a880:	1afffff8 	bne	a868 <__divdi3+0xd8>
    a884:	e261c020 	rsb	ip, r1, #32
    a888:	e1a00134 	lsr	r0, r4, r1
    a88c:	e0922004 	adds	r2, r2, r4
    a890:	e241e020 	sub	lr, r1, #32
    a894:	e1800c15 	orr	r0, r0, r5, lsl ip
    a898:	e1a04135 	lsr	r4, r5, r1
    a89c:	e1800e35 	orr	r0, r0, r5, lsr lr
    a8a0:	e1a07114 	lsl	r7, r4, r1
    a8a4:	e1877e10 	orr	r7, r7, r0, lsl lr
    a8a8:	e1a06110 	lsl	r6, r0, r1
    a8ac:	e0a33005 	adc	r3, r3, r5
    a8b0:	e1877c30 	orr	r7, r7, r0, lsr ip
    a8b4:	e0522006 	subs	r2, r2, r6
    a8b8:	e0c33007 	sbc	r3, r3, r7
    a8bc:	e29a0000 	adds	r0, sl, #0
    a8c0:	13a00001 	movne	r0, #1
    a8c4:	e3a01000 	mov	r1, #0
    a8c8:	e2704000 	rsbs	r4, r0, #0
    a8cc:	e2e15000 	rsc	r5, r1, #0
    a8d0:	e0222004 	eor	r2, r2, r4
    a8d4:	e0233005 	eor	r3, r3, r5
    a8d8:	e0900002 	adds	r0, r0, r2
    a8dc:	e0a11003 	adc	r1, r1, r3
    a8e0:	e8bd4ff8 	pop	{r3, r4, r5, r6, r7, r8, r9, sl, fp, lr}
    a8e4:	e12fff1e 	bx	lr
    a8e8:	e2728000 	rsbs	r8, r2, #0
    a8ec:	e1e0a00a 	mvn	sl, sl
    a8f0:	e2e39000 	rsc	r9, r3, #0
    a8f4:	eaffffaf 	b	a7b8 <__divdi3+0x28>
    a8f8:	e2704000 	rsbs	r4, r0, #0
    a8fc:	e2e15000 	rsc	r5, r1, #0
    a900:	e3e0a000 	mvn	sl, #0
    a904:	eaffffa7 	b	a7a8 <__divdi3+0x18>

0000a908 <__udivdi3>:
    a908:	e1510003 	cmp	r1, r3
    a90c:	01500002 	cmpeq	r0, r2
    a910:	e92d47f0 	push	{r4, r5, r6, r7, r8, r9, sl, lr}
    a914:	e1a04000 	mov	r4, r0
    a918:	e1a05001 	mov	r5, r1
    a91c:	e1a08002 	mov	r8, r2
    a920:	e1a09003 	mov	r9, r3
    a924:	33a00000 	movcc	r0, #0
    a928:	33a01000 	movcc	r1, #0
    a92c:	3a00003b 	bcc	aa20 <__udivdi3+0x118>
    a930:	e1a01003 	mov	r1, r3
    a934:	e1a00002 	mov	r0, r2
    a938:	eb00003a 	bl	aa28 <__clzdi2>
    a93c:	e1a01005 	mov	r1, r5
    a940:	e1a0a000 	mov	sl, r0
    a944:	e1a00004 	mov	r0, r4
    a948:	eb000036 	bl	aa28 <__clzdi2>
    a94c:	e060300a 	rsb	r3, r0, sl
    a950:	e243e020 	sub	lr, r3, #32
    a954:	e1a07319 	lsl	r7, r9, r3
    a958:	e1877e18 	orr	r7, r7, r8, lsl lr
    a95c:	e263c020 	rsb	ip, r3, #32
    a960:	e1877c38 	orr	r7, r7, r8, lsr ip
    a964:	e1550007 	cmp	r5, r7
    a968:	e1a06318 	lsl	r6, r8, r3
    a96c:	01540006 	cmpeq	r4, r6
    a970:	e1a02003 	mov	r2, r3
    a974:	33a00000 	movcc	r0, #0
    a978:	33a01000 	movcc	r1, #0
    a97c:	3a000005 	bcc	a998 <__udivdi3+0x90>
    a980:	e3a08001 	mov	r8, #1
    a984:	e0544006 	subs	r4, r4, r6
    a988:	e1a01e18 	lsl	r1, r8, lr
    a98c:	e1811c38 	orr	r1, r1, r8, lsr ip
    a990:	e0c55007 	sbc	r5, r5, r7
    a994:	e1a00318 	lsl	r0, r8, r3
    a998:	e3530000 	cmp	r3, #0
    a99c:	0a00001f 	beq	aa20 <__udivdi3+0x118>
    a9a0:	e1b070a7 	lsrs	r7, r7, #1
    a9a4:	e1a06066 	rrx	r6, r6
    a9a8:	ea000007 	b	a9cc <__udivdi3+0xc4>
    a9ac:	e0544006 	subs	r4, r4, r6
    a9b0:	e0c55007 	sbc	r5, r5, r7
    a9b4:	e0944004 	adds	r4, r4, r4
    a9b8:	e0a55005 	adc	r5, r5, r5
    a9bc:	e2944001 	adds	r4, r4, #1
    a9c0:	e2a55000 	adc	r5, r5, #0
    a9c4:	e2533001 	subs	r3, r3, #1
    a9c8:	0a000006 	beq	a9e8 <__udivdi3+0xe0>
    a9cc:	e1570005 	cmp	r7, r5
    a9d0:	01560004 	cmpeq	r6, r4
    a9d4:	9afffff4 	bls	a9ac <__udivdi3+0xa4>
    a9d8:	e0944004 	adds	r4, r4, r4
    a9dc:	e0a55005 	adc	r5, r5, r5
    a9e0:	e2533001 	subs	r3, r3, #1
    a9e4:	1afffff8 	bne	a9cc <__udivdi3+0xc4>
    a9e8:	e0948000 	adds	r8, r4, r0
    a9ec:	e0a59001 	adc	r9, r5, r1
    a9f0:	e1a03234 	lsr	r3, r4, r2
    a9f4:	e2621020 	rsb	r1, r2, #32
    a9f8:	e2420020 	sub	r0, r2, #32
    a9fc:	e1833115 	orr	r3, r3, r5, lsl r1
    aa00:	e1a0c235 	lsr	ip, r5, r2
    aa04:	e1833035 	orr	r3, r3, r5, lsr r0
    aa08:	e1a0721c 	lsl	r7, ip, r2
    aa0c:	e1877013 	orr	r7, r7, r3, lsl r0
    aa10:	e1a06213 	lsl	r6, r3, r2
    aa14:	e1877133 	orr	r7, r7, r3, lsr r1
    aa18:	e0580006 	subs	r0, r8, r6
    aa1c:	e0c91007 	sbc	r1, r9, r7
    aa20:	e8bd47f0 	pop	{r4, r5, r6, r7, r8, r9, sl, lr}
    aa24:	e12fff1e 	bx	lr

0000aa28 <__clzdi2>:
    aa28:	e92d4010 	push	{r4, lr}
    aa2c:	e3510000 	cmp	r1, #0
    aa30:	1a000002 	bne	aa40 <__clzdi2+0x18>
    aa34:	eb000005 	bl	aa50 <__clzsi2>
    aa38:	e2800020 	add	r0, r0, #32
    aa3c:	ea000001 	b	aa48 <__clzdi2+0x20>
    aa40:	e1a00001 	mov	r0, r1
    aa44:	eb000001 	bl	aa50 <__clzsi2>
    aa48:	e8bd4010 	pop	{r4, lr}
    aa4c:	e12fff1e 	bx	lr

0000aa50 <__clzsi2>:
    aa50:	e3a0101c 	mov	r1, #28
    aa54:	e3500801 	cmp	r0, #65536	; 0x10000
    aa58:	21a00820 	lsrcs	r0, r0, #16
    aa5c:	22411010 	subcs	r1, r1, #16
    aa60:	e3500c01 	cmp	r0, #256	; 0x100
    aa64:	21a00420 	lsrcs	r0, r0, #8
    aa68:	22411008 	subcs	r1, r1, #8
    aa6c:	e3500010 	cmp	r0, #16
    aa70:	21a00220 	lsrcs	r0, r0, #4
    aa74:	22411004 	subcs	r1, r1, #4
    aa78:	e28f2008 	add	r2, pc, #8
    aa7c:	e7d20000 	ldrb	r0, [r2, r0]
    aa80:	e0800001 	add	r0, r0, r1
    aa84:	e12fff1e 	bx	lr
    aa88:	02020304 	andeq	r0, r2, #4, 6	; 0x10000000
    aa8c:	01010101 	tsteq	r1, r1, lsl #2
	...
